Archive member included to satisfy reference by file (symbol)

C:/Program Files (x86)/Arm GNU Toolchain arm-none-eabi/13.2 Rel1/bin/../lib/gcc/arm-none-eabi/13.2.1/thumb/v8-m.main+dp/hard\libgcc.a(_aeabi_ldivmod.o)
                              ./ra/tes/dave2d/src/dave_context.o (__aeabi_ldivmod)
C:/Program Files (x86)/Arm GNU Toolchain arm-none-eabi/13.2 Rel1/bin/../lib/gcc/arm-none-eabi/13.2.1/thumb/v8-m.main+dp/hard\libgcc.a(_udivmoddi4.o)
                              C:/Program Files (x86)/Arm GNU Toolchain arm-none-eabi/13.2 Rel1/bin/../lib/gcc/arm-none-eabi/13.2.1/thumb/v8-m.main+dp/hard\libgcc.a(_aeabi_ldivmod.o) (__udivmoddi4)
C:/Program Files (x86)/Arm GNU Toolchain arm-none-eabi/13.2 Rel1/bin/../lib/gcc/arm-none-eabi/13.2.1/thumb/v8-m.main+dp/hard\libgcc.a(_dvmd_tls.o)
                              C:/Program Files (x86)/Arm GNU Toolchain arm-none-eabi/13.2 Rel1/bin/../lib/gcc/arm-none-eabi/13.2.1/thumb/v8-m.main+dp/hard\libgcc.a(_aeabi_ldivmod.o) (__aeabi_ldiv0)
C:/Program Files (x86)/Arm GNU Toolchain arm-none-eabi/13.2 Rel1/bin/../lib/gcc/arm-none-eabi/13.2.1/thumb/v8-m.main+dp/hard\libg_nano.a(libc_a-exit.o)
                              C:/Program Files (x86)/Arm GNU Toolchain arm-none-eabi/13.2 Rel1/bin/../lib/gcc/arm-none-eabi/13.2.1/thumb/v8-m.main+dp/hard/crt0.o (exit)
C:/Program Files (x86)/Arm GNU Toolchain arm-none-eabi/13.2 Rel1/bin/../lib/gcc/arm-none-eabi/13.2.1/thumb/v8-m.main+dp/hard\libg_nano.a(libc_a-malloc.o)
                              ./ra/fsp/src/r_drw/r_drw_memory.o (malloc)
C:/Program Files (x86)/Arm GNU Toolchain arm-none-eabi/13.2 Rel1/bin/../lib/gcc/arm-none-eabi/13.2.1/thumb/v8-m.main+dp/hard\libg_nano.a(libc_a-mallocr.o)
                              C:/Program Files (x86)/Arm GNU Toolchain arm-none-eabi/13.2 Rel1/bin/../lib/gcc/arm-none-eabi/13.2.1/thumb/v8-m.main+dp/hard\libg_nano.a(libc_a-malloc.o) (_malloc_r)
C:/Program Files (x86)/Arm GNU Toolchain arm-none-eabi/13.2 Rel1/bin/../lib/gcc/arm-none-eabi/13.2.1/thumb/v8-m.main+dp/hard\libg_nano.a(libc_a-mlock.o)
                              C:/Program Files (x86)/Arm GNU Toolchain arm-none-eabi/13.2 Rel1/bin/../lib/gcc/arm-none-eabi/13.2.1/thumb/v8-m.main+dp/hard\libg_nano.a(libc_a-mallocr.o) (__malloc_lock)
C:/Program Files (x86)/Arm GNU Toolchain arm-none-eabi/13.2 Rel1/bin/../lib/gcc/arm-none-eabi/13.2.1/thumb/v8-m.main+dp/hard\libg_nano.a(libc_a-findfp.o)
                              C:/Program Files (x86)/Arm GNU Toolchain arm-none-eabi/13.2 Rel1/bin/../lib/gcc/arm-none-eabi/13.2.1/thumb/v8-m.main+dp/hard\libg_nano.a(libc_a-exit.o) (__stdio_exit_handler)
C:/Program Files (x86)/Arm GNU Toolchain arm-none-eabi/13.2 Rel1/bin/../lib/gcc/arm-none-eabi/13.2.1/thumb/v8-m.main+dp/hard\libg_nano.a(libc_a-fwalk.o)
                              C:/Program Files (x86)/Arm GNU Toolchain arm-none-eabi/13.2 Rel1/bin/../lib/gcc/arm-none-eabi/13.2.1/thumb/v8-m.main+dp/hard\libg_nano.a(libc_a-findfp.o) (_fwalk_sglue)
C:/Program Files (x86)/Arm GNU Toolchain arm-none-eabi/13.2 Rel1/bin/../lib/gcc/arm-none-eabi/13.2.1/thumb/v8-m.main+dp/hard\libg_nano.a(libc_a-stdio.o)
                              C:/Program Files (x86)/Arm GNU Toolchain arm-none-eabi/13.2 Rel1/bin/../lib/gcc/arm-none-eabi/13.2.1/thumb/v8-m.main+dp/hard\libg_nano.a(libc_a-findfp.o) (__sread)
C:/Program Files (x86)/Arm GNU Toolchain arm-none-eabi/13.2 Rel1/bin/../lib/gcc/arm-none-eabi/13.2.1/thumb/v8-m.main+dp/hard\libg_nano.a(libc_a-memset.o)
                              C:/Program Files (x86)/Arm GNU Toolchain arm-none-eabi/13.2 Rel1/bin/../lib/gcc/arm-none-eabi/13.2.1/thumb/v8-m.main+dp/hard/crt0.o (memset)
C:/Program Files (x86)/Arm GNU Toolchain arm-none-eabi/13.2 Rel1/bin/../lib/gcc/arm-none-eabi/13.2.1/thumb/v8-m.main+dp/hard\libg_nano.a(libc_a-closer.o)
                              C:/Program Files (x86)/Arm GNU Toolchain arm-none-eabi/13.2 Rel1/bin/../lib/gcc/arm-none-eabi/13.2.1/thumb/v8-m.main+dp/hard\libg_nano.a(libc_a-stdio.o) (_close_r)
C:/Program Files (x86)/Arm GNU Toolchain arm-none-eabi/13.2 Rel1/bin/../lib/gcc/arm-none-eabi/13.2.1/thumb/v8-m.main+dp/hard\libg_nano.a(libc_a-reent.o)
                              C:/Program Files (x86)/Arm GNU Toolchain arm-none-eabi/13.2 Rel1/bin/../lib/gcc/arm-none-eabi/13.2.1/thumb/v8-m.main+dp/hard\libg_nano.a(libc_a-closer.o) (errno)
C:/Program Files (x86)/Arm GNU Toolchain arm-none-eabi/13.2 Rel1/bin/../lib/gcc/arm-none-eabi/13.2.1/thumb/v8-m.main+dp/hard\libg_nano.a(libc_a-impure.o)
                              C:/Program Files (x86)/Arm GNU Toolchain arm-none-eabi/13.2 Rel1/bin/../lib/gcc/arm-none-eabi/13.2.1/thumb/v8-m.main+dp/hard\libg_nano.a(libc_a-malloc.o) (_impure_ptr)
C:/Program Files (x86)/Arm GNU Toolchain arm-none-eabi/13.2 Rel1/bin/../lib/gcc/arm-none-eabi/13.2.1/thumb/v8-m.main+dp/hard\libg_nano.a(libc_a-lseekr.o)
                              C:/Program Files (x86)/Arm GNU Toolchain arm-none-eabi/13.2 Rel1/bin/../lib/gcc/arm-none-eabi/13.2.1/thumb/v8-m.main+dp/hard\libg_nano.a(libc_a-stdio.o) (_lseek_r)
C:/Program Files (x86)/Arm GNU Toolchain arm-none-eabi/13.2 Rel1/bin/../lib/gcc/arm-none-eabi/13.2.1/thumb/v8-m.main+dp/hard\libg_nano.a(libc_a-readr.o)
                              C:/Program Files (x86)/Arm GNU Toolchain arm-none-eabi/13.2 Rel1/bin/../lib/gcc/arm-none-eabi/13.2.1/thumb/v8-m.main+dp/hard\libg_nano.a(libc_a-stdio.o) (_read_r)
C:/Program Files (x86)/Arm GNU Toolchain arm-none-eabi/13.2 Rel1/bin/../lib/gcc/arm-none-eabi/13.2.1/thumb/v8-m.main+dp/hard\libg_nano.a(libc_a-sbrkr.o)
                              C:/Program Files (x86)/Arm GNU Toolchain arm-none-eabi/13.2 Rel1/bin/../lib/gcc/arm-none-eabi/13.2.1/thumb/v8-m.main+dp/hard\libg_nano.a(libc_a-mallocr.o) (_sbrk_r)
C:/Program Files (x86)/Arm GNU Toolchain arm-none-eabi/13.2 Rel1/bin/../lib/gcc/arm-none-eabi/13.2.1/thumb/v8-m.main+dp/hard\libg_nano.a(libc_a-writer.o)
                              C:/Program Files (x86)/Arm GNU Toolchain arm-none-eabi/13.2 Rel1/bin/../lib/gcc/arm-none-eabi/13.2.1/thumb/v8-m.main+dp/hard\libg_nano.a(libc_a-stdio.o) (_write_r)
C:/Program Files (x86)/Arm GNU Toolchain arm-none-eabi/13.2 Rel1/bin/../lib/gcc/arm-none-eabi/13.2.1/thumb/v8-m.main+dp/hard\libg_nano.a(libc_a-errno.o)
                              ./ra/fsp/src/bsp/mcu/all/bsp_sbrk.o (__errno)
C:/Program Files (x86)/Arm GNU Toolchain arm-none-eabi/13.2 Rel1/bin/../lib/gcc/arm-none-eabi/13.2.1/thumb/v8-m.main+dp/hard\libg_nano.a(libc_a-init.o)
                              C:/Program Files (x86)/Arm GNU Toolchain arm-none-eabi/13.2 Rel1/bin/../lib/gcc/arm-none-eabi/13.2.1/thumb/v8-m.main+dp/hard/crt0.o (__libc_init_array)
C:/Program Files (x86)/Arm GNU Toolchain arm-none-eabi/13.2 Rel1/bin/../lib/gcc/arm-none-eabi/13.2.1/thumb/v8-m.main+dp/hard\libg_nano.a(libc_a-lock.o)
                              C:/Program Files (x86)/Arm GNU Toolchain arm-none-eabi/13.2 Rel1/bin/../lib/gcc/arm-none-eabi/13.2.1/thumb/v8-m.main+dp/hard\libg_nano.a(libc_a-findfp.o) (__retarget_lock_init_recursive)
C:/Program Files (x86)/Arm GNU Toolchain arm-none-eabi/13.2 Rel1/bin/../lib/gcc/arm-none-eabi/13.2.1/thumb/v8-m.main+dp/hard\libg_nano.a(libc_a-memcpy-stub.o)
                              ./src/SEGGER_RTT/SEGGER_RTT.o (memcpy)
C:/Program Files (x86)/Arm GNU Toolchain arm-none-eabi/13.2 Rel1/bin/../lib/gcc/arm-none-eabi/13.2.1/thumb/v8-m.main+dp/hard\libg_nano.a(libc_a-strlen.o)
                              ./src/SEGGER_RTT/SEGGER_RTT.o (strlen)
C:/Program Files (x86)/Arm GNU Toolchain arm-none-eabi/13.2 Rel1/bin/../lib/gcc/arm-none-eabi/13.2.1/thumb/v8-m.main+dp/hard\libg_nano.a(libc_a-freer.o)
                              C:/Program Files (x86)/Arm GNU Toolchain arm-none-eabi/13.2 Rel1/bin/../lib/gcc/arm-none-eabi/13.2.1/thumb/v8-m.main+dp/hard\libg_nano.a(libc_a-malloc.o) (_free_r)
C:/Program Files (x86)/Arm GNU Toolchain arm-none-eabi/13.2 Rel1/bin/../lib/gcc/arm-none-eabi/13.2.1/thumb/v8-m.main+dp/hard\libg_nano.a(libc_a-fflush.o)
                              C:/Program Files (x86)/Arm GNU Toolchain arm-none-eabi/13.2 Rel1/bin/../lib/gcc/arm-none-eabi/13.2.1/thumb/v8-m.main+dp/hard\libg_nano.a(libc_a-findfp.o) (_fflush_r)
C:/Program Files (x86)/Arm GNU Toolchain arm-none-eabi/13.2 Rel1/bin/../lib/gcc/arm-none-eabi/13.2.1/thumb/v8-m.main+dp/hard\libnosys.a(close.o)
                              C:/Program Files (x86)/Arm GNU Toolchain arm-none-eabi/13.2 Rel1/bin/../lib/gcc/arm-none-eabi/13.2.1/thumb/v8-m.main+dp/hard\libg_nano.a(libc_a-closer.o) (_close)
C:/Program Files (x86)/Arm GNU Toolchain arm-none-eabi/13.2 Rel1/bin/../lib/gcc/arm-none-eabi/13.2.1/thumb/v8-m.main+dp/hard\libnosys.a(lseek.o)
                              C:/Program Files (x86)/Arm GNU Toolchain arm-none-eabi/13.2 Rel1/bin/../lib/gcc/arm-none-eabi/13.2.1/thumb/v8-m.main+dp/hard\libg_nano.a(libc_a-lseekr.o) (_lseek)
C:/Program Files (x86)/Arm GNU Toolchain arm-none-eabi/13.2 Rel1/bin/../lib/gcc/arm-none-eabi/13.2.1/thumb/v8-m.main+dp/hard\libnosys.a(read.o)
                              C:/Program Files (x86)/Arm GNU Toolchain arm-none-eabi/13.2 Rel1/bin/../lib/gcc/arm-none-eabi/13.2.1/thumb/v8-m.main+dp/hard\libg_nano.a(libc_a-readr.o) (_read)
C:/Program Files (x86)/Arm GNU Toolchain arm-none-eabi/13.2 Rel1/bin/../lib/gcc/arm-none-eabi/13.2.1/thumb/v8-m.main+dp/hard\libnosys.a(write.o)
                              C:/Program Files (x86)/Arm GNU Toolchain arm-none-eabi/13.2 Rel1/bin/../lib/gcc/arm-none-eabi/13.2.1/thumb/v8-m.main+dp/hard\libg_nano.a(libc_a-writer.o) (_write)
C:/Program Files (x86)/Arm GNU Toolchain arm-none-eabi/13.2 Rel1/bin/../lib/gcc/arm-none-eabi/13.2.1/thumb/v8-m.main+dp/hard\libnosys.a(_exit.o)
                              C:/Program Files (x86)/Arm GNU Toolchain arm-none-eabi/13.2 Rel1/bin/../lib/gcc/arm-none-eabi/13.2.1/thumb/v8-m.main+dp/hard\libg_nano.a(libc_a-exit.o) (_exit)

Discarded input sections

 .text          0x00000000        0x0 C:/Program Files (x86)/Arm GNU Toolchain arm-none-eabi/13.2 Rel1/bin/../lib/gcc/arm-none-eabi/13.2.1/thumb/v8-m.main+dp/hard/crti.o
 .data          0x00000000        0x0 C:/Program Files (x86)/Arm GNU Toolchain arm-none-eabi/13.2 Rel1/bin/../lib/gcc/arm-none-eabi/13.2.1/thumb/v8-m.main+dp/hard/crti.o
 .bss           0x00000000        0x0 C:/Program Files (x86)/Arm GNU Toolchain arm-none-eabi/13.2 Rel1/bin/../lib/gcc/arm-none-eabi/13.2.1/thumb/v8-m.main+dp/hard/crti.o
 .text          0x00000000        0x0 C:/Program Files (x86)/Arm GNU Toolchain arm-none-eabi/13.2 Rel1/bin/../lib/gcc/arm-none-eabi/13.2.1/thumb/v8-m.main+dp/hard/crtbegin.o
 .data          0x00000000        0x0 C:/Program Files (x86)/Arm GNU Toolchain arm-none-eabi/13.2 Rel1/bin/../lib/gcc/arm-none-eabi/13.2.1/thumb/v8-m.main+dp/hard/crtbegin.o
 .bss           0x00000000        0x0 C:/Program Files (x86)/Arm GNU Toolchain arm-none-eabi/13.2 Rel1/bin/../lib/gcc/arm-none-eabi/13.2.1/thumb/v8-m.main+dp/hard/crtbegin.o
 .rodata.all_implied_fbits
                0x00000000       0x24 C:/Program Files (x86)/Arm GNU Toolchain arm-none-eabi/13.2 Rel1/bin/../lib/gcc/arm-none-eabi/13.2.1/thumb/v8-m.main+dp/hard/crtbegin.o
 .data.__dso_handle
                0x00000000        0x4 C:/Program Files (x86)/Arm GNU Toolchain arm-none-eabi/13.2 Rel1/bin/../lib/gcc/arm-none-eabi/13.2.1/thumb/v8-m.main+dp/hard/crtbegin.o
 .text          0x00000000       0x7c C:/Program Files (x86)/Arm GNU Toolchain arm-none-eabi/13.2 Rel1/bin/../lib/gcc/arm-none-eabi/13.2.1/thumb/v8-m.main+dp/hard/crt0.o
 .data          0x00000000        0x0 C:/Program Files (x86)/Arm GNU Toolchain arm-none-eabi/13.2 Rel1/bin/../lib/gcc/arm-none-eabi/13.2.1/thumb/v8-m.main+dp/hard/crt0.o
 .bss           0x00000000        0x0 C:/Program Files (x86)/Arm GNU Toolchain arm-none-eabi/13.2 Rel1/bin/../lib/gcc/arm-none-eabi/13.2.1/thumb/v8-m.main+dp/hard/crt0.o
 .ARM.extab     0x00000000        0x0 C:/Program Files (x86)/Arm GNU Toolchain arm-none-eabi/13.2 Rel1/bin/../lib/gcc/arm-none-eabi/13.2.1/thumb/v8-m.main+dp/hard/crt0.o
 .ARM.exidx     0x00000000       0x10 C:/Program Files (x86)/Arm GNU Toolchain arm-none-eabi/13.2 Rel1/bin/../lib/gcc/arm-none-eabi/13.2.1/thumb/v8-m.main+dp/hard/crt0.o
 .debug_line_str
                0x00000000       0xda C:/Program Files (x86)/Arm GNU Toolchain arm-none-eabi/13.2 Rel1/bin/../lib/gcc/arm-none-eabi/13.2.1/thumb/v8-m.main+dp/hard/crt0.o
 .ARM.attributes
                0x00000000       0x22 C:/Program Files (x86)/Arm GNU Toolchain arm-none-eabi/13.2 Rel1/bin/../lib/gcc/arm-none-eabi/13.2.1/thumb/v8-m.main+dp/hard/crt0.o
 .text          0x00000000        0x0 ./src/testbench/testbench.o
 .data          0x00000000        0x0 ./src/testbench/testbench.o
 .bss           0x00000000        0x0 ./src/testbench/testbench.o
 .text          0x00000000        0x0 ./src/testbench/testbench_timers.o
 .data          0x00000000        0x0 ./src/testbench/testbench_timers.o
 .bss           0x00000000        0x0 ./src/testbench/testbench_timers.o
 .text          0x00000000        0x0 ./src/draw_core/draw_core.o
 .data          0x00000000        0x0 ./src/draw_core/draw_core.o
 .bss           0x00000000        0x0 ./src/draw_core/draw_core.o
 .data.g_c_c_x1
                0x00000000        0x2 ./src/draw_core/draw_core.o
 .data.g_c_r    0x00000000        0x2 ./src/draw_core/draw_core.o
 .bss.g_c_w     0x00000000        0x2 ./src/draw_core/draw_core.o
 .text          0x00000000        0x0 ./src/SEGGER_RTT/SEGGER_RTT.o
 .data          0x00000000        0x0 ./src/SEGGER_RTT/SEGGER_RTT.o
 .bss           0x00000000        0x0 ./src/SEGGER_RTT/SEGGER_RTT.o
 .rodata._aTerminalId
                0x00000000       0x10 ./src/SEGGER_RTT/SEGGER_RTT.o
 .bss._SEGGER_RTT
                0x00000000       0xa8 ./src/SEGGER_RTT/SEGGER_RTT.o
 .bss._acUpBuffer
                0x00000000      0x800 ./src/SEGGER_RTT/SEGGER_RTT.o
 .bss._acDownBuffer
                0x00000000       0x10 ./src/SEGGER_RTT/SEGGER_RTT.o
 .bss._ActiveTerminal
                0x00000000        0x1 ./src/SEGGER_RTT/SEGGER_RTT.o
 .rodata        0x00000000        0x9 ./src/SEGGER_RTT/SEGGER_RTT.o
 .text._DoInit  0x00000000       0xb4 ./src/SEGGER_RTT/SEGGER_RTT.o
 .text._WriteBlocking
                0x00000000       0xba ./src/SEGGER_RTT/SEGGER_RTT.o
 .text._WriteNoCheck
                0x00000000       0x90 ./src/SEGGER_RTT/SEGGER_RTT.o
 .text._PostTerminalSwitch
                0x00000000       0x34 ./src/SEGGER_RTT/SEGGER_RTT.o
 .text._GetAvailWriteSpace
                0x00000000       0x46 ./src/SEGGER_RTT/SEGGER_RTT.o
 .text.SEGGER_RTT_ReadUpBufferNoLock
                0x00000000      0x10c ./src/SEGGER_RTT/SEGGER_RTT.o
 .text.SEGGER_RTT_ReadNoLock
                0x00000000      0x10c ./src/SEGGER_RTT/SEGGER_RTT.o
 .text.SEGGER_RTT_ReadUpBuffer
                0x00000000       0x36 ./src/SEGGER_RTT/SEGGER_RTT.o
 .text.SEGGER_RTT_Read
                0x00000000       0x36 ./src/SEGGER_RTT/SEGGER_RTT.o
 .text.SEGGER_RTT_WriteWithOverwriteNoLock
                0x00000000      0x124 ./src/SEGGER_RTT/SEGGER_RTT.o
 .text.SEGGER_RTT_WriteDownBufferNoLock
                0x00000000       0xa0 ./src/SEGGER_RTT/SEGGER_RTT.o
 .text.SEGGER_RTT_WriteNoLock
                0x00000000       0xa0 ./src/SEGGER_RTT/SEGGER_RTT.o
 .text.SEGGER_RTT_WriteDownBuffer
                0x00000000       0x4c ./src/SEGGER_RTT/SEGGER_RTT.o
 .text.SEGGER_RTT_Write
                0x00000000       0x4c ./src/SEGGER_RTT/SEGGER_RTT.o
 .text.SEGGER_RTT_WriteString
                0x00000000       0x26 ./src/SEGGER_RTT/SEGGER_RTT.o
 .text.SEGGER_RTT_PutCharSkipNoLock
                0x00000000       0x78 ./src/SEGGER_RTT/SEGGER_RTT.o
 .text.SEGGER_RTT_PutCharSkip
                0x00000000       0x98 ./src/SEGGER_RTT/SEGGER_RTT.o
 .text.SEGGER_RTT_PutChar
                0x00000000       0xac ./src/SEGGER_RTT/SEGGER_RTT.o
 .text.SEGGER_RTT_GetKey
                0x00000000       0x36 ./src/SEGGER_RTT/SEGGER_RTT.o
 .text.SEGGER_RTT_WaitKey
                0x00000000       0x1c ./src/SEGGER_RTT/SEGGER_RTT.o
 .text.SEGGER_RTT_HasKey
                0x00000000       0x48 ./src/SEGGER_RTT/SEGGER_RTT.o
 .text.SEGGER_RTT_HasData
                0x00000000       0x38 ./src/SEGGER_RTT/SEGGER_RTT.o
 .text.SEGGER_RTT_HasDataUp
                0x00000000       0x38 ./src/SEGGER_RTT/SEGGER_RTT.o
 .text.SEGGER_RTT_AllocDownBuffer
                0x00000000      0x104 ./src/SEGGER_RTT/SEGGER_RTT.o
 .text.SEGGER_RTT_AllocUpBuffer
                0x00000000      0x108 ./src/SEGGER_RTT/SEGGER_RTT.o
 .text.SEGGER_RTT_ConfigUpBuffer
                0x00000000       0x94 ./src/SEGGER_RTT/SEGGER_RTT.o
 .text.SEGGER_RTT_ConfigDownBuffer
                0x00000000       0x98 ./src/SEGGER_RTT/SEGGER_RTT.o
 .text.SEGGER_RTT_SetNameUpBuffer
                0x00000000       0x6c ./src/SEGGER_RTT/SEGGER_RTT.o
 .text.SEGGER_RTT_SetNameDownBuffer
                0x00000000       0x6c ./src/SEGGER_RTT/SEGGER_RTT.o
 .text.SEGGER_RTT_SetFlagsUpBuffer
                0x00000000       0x6c ./src/SEGGER_RTT/SEGGER_RTT.o
 .text.SEGGER_RTT_SetFlagsDownBuffer
                0x00000000       0x6c ./src/SEGGER_RTT/SEGGER_RTT.o
 .text.SEGGER_RTT_Init
                0x00000000        0xc ./src/SEGGER_RTT/SEGGER_RTT.o
 .text.SEGGER_RTT_SetTerminal
                0x00000000       0xb8 ./src/SEGGER_RTT/SEGGER_RTT.o
 .text.SEGGER_RTT_TerminalOut
                0x00000000      0x128 ./src/SEGGER_RTT/SEGGER_RTT.o
 .text.SEGGER_RTT_GetAvailWriteSpace
                0x00000000       0x30 ./src/SEGGER_RTT/SEGGER_RTT.o
 .text.SEGGER_RTT_GetBytesInBuffer
                0x00000000       0x74 ./src/SEGGER_RTT/SEGGER_RTT.o
 .rodata._aInitStr.0
                0x00000000       0x11 ./src/SEGGER_RTT/SEGGER_RTT.o
 .debug_info    0x00000000     0x15f5 ./src/SEGGER_RTT/SEGGER_RTT.o
 .debug_abbrev  0x00000000      0x224 ./src/SEGGER_RTT/SEGGER_RTT.o
 .debug_aranges
                0x00000000      0x138 ./src/SEGGER_RTT/SEGGER_RTT.o
 .debug_ranges  0x00000000      0x128 ./src/SEGGER_RTT/SEGGER_RTT.o
 .debug_line    0x00000000      0xb53 ./src/SEGGER_RTT/SEGGER_RTT.o
 .debug_str     0x00000000      0x6f9 ./src/SEGGER_RTT/SEGGER_RTT.o
 .comment       0x00000000       0x45 ./src/SEGGER_RTT/SEGGER_RTT.o
 .debug_frame   0x00000000      0x52c ./src/SEGGER_RTT/SEGGER_RTT.o
 .ARM.attributes
                0x00000000       0x3e ./src/SEGGER_RTT/SEGGER_RTT.o
 .text          0x00000000        0x0 ./src/SEGGER_RTT/SEGGER_RTT_printf.o
 .data          0x00000000        0x0 ./src/SEGGER_RTT/SEGGER_RTT_printf.o
 .bss           0x00000000        0x0 ./src/SEGGER_RTT/SEGGER_RTT_printf.o
 .text          0x00000000        0x0 ./src/SCI_RTT/SCI_RTT.o
 .data          0x00000000        0x0 ./src/SCI_RTT/SCI_RTT.o
 .bss           0x00000000        0x0 ./src/SCI_RTT/SCI_RTT.o
 .text.SEGGER_RTT_HasKey
                0x00000000       0x24 ./src/SCI_RTT/SCI_RTT.o
 .text.SEGGER_RTT_Read
                0x00000000       0x6c ./src/SCI_RTT/SCI_RTT.o
 .text          0x00000000        0x0 ./src/MIPI/mipi.o
 .data          0x00000000        0x0 ./src/MIPI/mipi.o
 .bss           0x00000000        0x0 ./src/MIPI/mipi.o
 .text          0x00000000        0x0 ./src/GLCD/glcd.o
 .data          0x00000000        0x0 ./src/GLCD/glcd.o
 .bss           0x00000000        0x0 ./src/GLCD/glcd.o
 .text.glcd_handle_error
                0x00000000       0x16 ./src/GLCD/glcd.o
 .text          0x00000000        0x0 ./src/DRW_ep.o
 .data          0x00000000        0x0 ./src/DRW_ep.o
 .bss           0x00000000        0x0 ./src/DRW_ep.o
 .text          0x00000000        0x0 ./src/hal_entry.o
 .data          0x00000000        0x0 ./src/hal_entry.o
 .bss           0x00000000        0x0 ./src/hal_entry.o
 .text          0x00000000        0x0 ./ra_gen/common_data.o
 .data          0x00000000        0x0 ./ra_gen/common_data.o
 .bss           0x00000000        0x0 ./ra_gen/common_data.o
 .data.g_display_runtime_cfg_bg
                0x00000000       0x20 ./ra_gen/common_data.o
 .bss.d2_handle0
                0x00000000        0x4 ./ra_gen/common_data.o
 .text.g_common_init
                0x00000000        0xe ./ra_gen/common_data.o
 .text          0x00000000        0x0 ./ra_gen/hal_data.o
 .data          0x00000000        0x0 ./ra_gen/hal_data.o
 .bss           0x00000000        0x0 ./ra_gen/hal_data.o
 .text.g_hal_init
                0x00000000        0xc ./ra_gen/hal_data.o
 .text          0x00000000        0x0 ./ra_gen/main.o
 .data          0x00000000        0x0 ./ra_gen/main.o
 .bss           0x00000000        0x0 ./ra_gen/main.o
 .text          0x00000000        0x0 ./ra_gen/pin_data.o
 .data          0x00000000        0x0 ./ra_gen/pin_data.o
 .bss           0x00000000        0x0 ./ra_gen/pin_data.o
 .text          0x00000000        0x0 ./ra_gen/vector_data.o
 .data          0x00000000        0x0 ./ra_gen/vector_data.o
 .bss           0x00000000        0x0 ./ra_gen/vector_data.o
 .text          0x00000000        0x0 ./ra/tes/dave2d/src/dave_64bitoperation.o
 .data          0x00000000        0x0 ./ra/tes/dave2d/src/dave_64bitoperation.o
 .bss           0x00000000        0x0 ./ra/tes/dave2d/src/dave_64bitoperation.o
 .debug_info    0x00000000       0x72 ./ra/tes/dave2d/src/dave_64bitoperation.o
 .debug_abbrev  0x00000000       0x26 ./ra/tes/dave2d/src/dave_64bitoperation.o
 .debug_aranges
                0x00000000       0x18 ./ra/tes/dave2d/src/dave_64bitoperation.o
 .debug_line    0x00000000       0x4b ./ra/tes/dave2d/src/dave_64bitoperation.o
 .debug_str     0x00000000      0x1d9 ./ra/tes/dave2d/src/dave_64bitoperation.o
 .comment       0x00000000       0x45 ./ra/tes/dave2d/src/dave_64bitoperation.o
 .ARM.attributes
                0x00000000       0x3e ./ra/tes/dave2d/src/dave_64bitoperation.o
 .text          0x00000000        0x0 ./ra/tes/dave2d/src/dave_base.o
 .data          0x00000000        0x0 ./ra/tes/dave2d/src/dave_base.o
 .bss           0x00000000        0x0 ./ra/tes/dave2d/src/dave_base.o
 .rodata.g_versionid
                0x00000000        0x5 ./ra/tes/dave2d/src/dave_base.o
 .text.d1_getversionstring
                0x00000000       0x14 ./ra/tes/dave2d/src/dave_base.o
 .text.d1_getversion
                0x00000000       0x14 ./ra/tes/dave2d/src/dave_base.o
 .debug_info    0x00000000       0xa7 ./ra/tes/dave2d/src/dave_base.o
 .debug_abbrev  0x00000000       0x77 ./ra/tes/dave2d/src/dave_base.o
 .debug_aranges
                0x00000000       0x28 ./ra/tes/dave2d/src/dave_base.o
 .debug_ranges  0x00000000       0x18 ./ra/tes/dave2d/src/dave_base.o
 .debug_line    0x00000000       0x6f ./ra/tes/dave2d/src/dave_base.o
 .debug_str     0x00000000      0x1aa ./ra/tes/dave2d/src/dave_base.o
 .comment       0x00000000       0x45 ./ra/tes/dave2d/src/dave_base.o
 .debug_frame   0x00000000       0x50 ./ra/tes/dave2d/src/dave_base.o
 .ARM.attributes
                0x00000000       0x3e ./ra/tes/dave2d/src/dave_base.o
 .text          0x00000000        0x0 ./ra/tes/dave2d/src/dave_blit.o
 .data          0x00000000        0x0 ./ra/tes/dave2d/src/dave_blit.o
 .bss           0x00000000        0x0 ./ra/tes/dave2d/src/dave_blit.o
 .text.d2_seterr
                0x00000000       0x22 ./ra/tes/dave2d/src/dave_blit.o
 .text.d2_setblitsrc
                0x00000000       0xce ./ra/tes/dave2d/src/dave_blit.o
 .text.d2_blitcopy
                0x00000000      0x72c ./ra/tes/dave2d/src/dave_blit.o
 .debug_info    0x00000000     0x11f4 ./ra/tes/dave2d/src/dave_blit.o
 .debug_abbrev  0x00000000      0x1c6 ./ra/tes/dave2d/src/dave_blit.o
 .debug_aranges
                0x00000000       0x30 ./ra/tes/dave2d/src/dave_blit.o
 .debug_ranges  0x00000000       0x20 ./ra/tes/dave2d/src/dave_blit.o
 .debug_line    0x00000000      0x4fb ./ra/tes/dave2d/src/dave_blit.o
 .debug_str     0x00000000      0xd7a ./ra/tes/dave2d/src/dave_blit.o
 .comment       0x00000000       0x45 ./ra/tes/dave2d/src/dave_blit.o
 .debug_frame   0x00000000       0x84 ./ra/tes/dave2d/src/dave_blit.o
 .ARM.attributes
                0x00000000       0x3e ./ra/tes/dave2d/src/dave_blit.o
 .text          0x00000000        0x0 ./ra/tes/dave2d/src/dave_box.o
 .data          0x00000000        0x0 ./ra/tes/dave2d/src/dave_box.o
 .bss           0x00000000        0x0 ./ra/tes/dave2d/src/dave_box.o
 .text.d2_renderbox_intern
                0x00000000       0x3e ./ra/tes/dave2d/src/dave_box.o
 .text          0x00000000        0x0 ./ra/tes/dave2d/src/dave_circle.o
 .data          0x00000000        0x0 ./ra/tes/dave2d/src/dave_circle.o
 .bss           0x00000000        0x0 ./ra/tes/dave2d/src/dave_circle.o
 .text.d2_add2dlist_intern
                0x00000000       0x5a ./ra/tes/dave2d/src/dave_circle.o
 .text.d2_rendercircle_intern
                0x00000000      0x43c ./ra/tes/dave2d/src/dave_circle.o
 .text.d2_rendercircle_solid
                0x00000000       0x44 ./ra/tes/dave2d/src/dave_circle.o
 .text.d2_rendercircle_shadow
                0x00000000       0x5e ./ra/tes/dave2d/src/dave_circle.o
 .text.d2_rendercircle_outline
                0x00000000       0xd0 ./ra/tes/dave2d/src/dave_circle.o
 .text.d2_rendercircle_solidoutline
                0x00000000       0xda ./ra/tes/dave2d/src/dave_circle.o
 .text.d2_rendercircle_solidshadow
                0x00000000       0x8a ./ra/tes/dave2d/src/dave_circle.o
 .debug_info    0x00000000     0x131c ./ra/tes/dave2d/src/dave_circle.o
 .debug_abbrev  0x00000000      0x212 ./ra/tes/dave2d/src/dave_circle.o
 .debug_aranges
                0x00000000       0x50 ./ra/tes/dave2d/src/dave_circle.o
 .debug_ranges  0x00000000       0x40 ./ra/tes/dave2d/src/dave_circle.o
 .debug_line    0x00000000      0x495 ./ra/tes/dave2d/src/dave_circle.o
 .debug_str     0x00000000      0xde9 ./ra/tes/dave2d/src/dave_circle.o
 .comment       0x00000000       0x45 ./ra/tes/dave2d/src/dave_circle.o
 .debug_frame   0x00000000      0x11c ./ra/tes/dave2d/src/dave_circle.o
 .ARM.attributes
                0x00000000       0x3e ./ra/tes/dave2d/src/dave_circle.o
 .text          0x00000000        0x0 ./ra/tes/dave2d/src/dave_context.o
 .data          0x00000000        0x0 ./ra/tes/dave2d/src/dave_context.o
 .bss           0x00000000        0x0 ./ra/tes/dave2d/src/dave_context.o
 .text.d2_freecontext
                0x00000000       0xc4 ./ra/tes/dave2d/src/dave_context.o
 .text.d2_getcontext
                0x00000000       0x50 ./ra/tes/dave2d/src/dave_context.o
 .text.d2_selectcontext
                0x00000000       0x3c ./ra/tes/dave2d/src/dave_context.o
 .text.d2_solidcontext
                0x00000000       0x3c ./ra/tes/dave2d/src/dave_context.o
 .text.d2_outlinecontext
                0x00000000       0x3c ./ra/tes/dave2d/src/dave_context.o
 .text.d2_setfillmode
                0x00000000       0xc0 ./ra/tes/dave2d/src/dave_context.o
 .text.d2_setalphaex
                0x00000000       0x58 ./ra/tes/dave2d/src/dave_context.o
 .text.d2_setalphagradient
                0x00000000      0x112 ./ra/tes/dave2d/src/dave_context.o
 .text.d2_setalphablendmode
                0x00000000      0x170 ./ra/tes/dave2d/src/dave_context.o
 .text.d2_setalphablendmodeex
                0x00000000       0x56 ./ra/tes/dave2d/src/dave_context.o
 .text.d2_setblur
                0x00000000       0x92 ./ra/tes/dave2d/src/dave_context.o
 .text.d2_setmiterlimit
                0x00000000       0x2c ./ra/tes/dave2d/src/dave_context.o
 .text.d2_setpattern
                0x00000000       0x7e ./ra/tes/dave2d/src/dave_context.o
 .text.d2_setpatternalpha
                0x00000000       0x44 ./ra/tes/dave2d/src/dave_context.o
 .text.d2_setpatternparam
                0x00000000      0x142 ./ra/tes/dave2d/src/dave_context.o
 .text.d2_setlinepattern
                0x00000000       0x4a ./ra/tes/dave2d/src/dave_context.o
 .text.d2_setpatternmode
                0x00000000       0x5c ./ra/tes/dave2d/src/dave_context.o
 .text.d2_setpatternsize
                0x00000000       0x2a ./ra/tes/dave2d/src/dave_context.o
 .text.d2_setclipgradient
                0x00000000       0xba ./ra/tes/dave2d/src/dave_context.o
 .text.d2_setcircleextend
                0x00000000       0x2c ./ra/tes/dave2d/src/dave_context.o
 .text.d2_getfillmode
                0x00000000       0x22 ./ra/tes/dave2d/src/dave_context.o
 .text.d2_getcolor
                0x00000000       0x2a ./ra/tes/dave2d/src/dave_context.o
 .text.d2_getalpha
                0x00000000       0x22 ./ra/tes/dave2d/src/dave_context.o
 .text.d2_getalphaex
                0x00000000       0x2a ./ra/tes/dave2d/src/dave_context.o
 .text.d2_getalphamode
                0x00000000       0x22 ./ra/tes/dave2d/src/dave_context.o
 .text.d2_getblendmodesrc
                0x00000000       0x7c ./ra/tes/dave2d/src/dave_context.o
 .text.d2_getblendmodedst
                0x00000000       0x7c ./ra/tes/dave2d/src/dave_context.o
 .text.d2_getalphablendmodesrc
                0x00000000       0xac ./ra/tes/dave2d/src/dave_context.o
 .text.d2_getalphablendmodedst
                0x00000000       0xac ./ra/tes/dave2d/src/dave_context.o
 .text.d2_getalphablendmodeflags
                0x00000000       0x22 ./ra/tes/dave2d/src/dave_context.o
 .text.d2_getantialiasing
                0x00000000       0x34 ./ra/tes/dave2d/src/dave_context.o
 .text.d2_getblur
                0x00000000       0x24 ./ra/tes/dave2d/src/dave_context.o
 .text.d2_getlinecap
                0x00000000       0x24 ./ra/tes/dave2d/src/dave_context.o
 .text.d2_getlinejoin
                0x00000000       0x24 ./ra/tes/dave2d/src/dave_context.o
 .text.d2_getpattern
                0x00000000       0x24 ./ra/tes/dave2d/src/dave_context.o
 .text.d2_getpatternmode
                0x00000000       0x20 ./ra/tes/dave2d/src/dave_context.o
 .text.d2_getpatternsize
                0x00000000       0x20 ./ra/tes/dave2d/src/dave_context.o
 .text.d2_getpatternalpha
                0x00000000       0x2a ./ra/tes/dave2d/src/dave_context.o
 .text          0x00000000        0x0 ./ra/tes/dave2d/src/dave_curve.o
 .data          0x00000000        0x0 ./ra/tes/dave2d/src/dave_curve.o
 .bss           0x00000000        0x0 ./ra/tes/dave2d/src/dave_curve.o
 .text          0x00000000        0x0 ./ra/tes/dave2d/src/dave_dlist.o
 .data          0x00000000        0x0 ./ra/tes/dave2d/src/dave_dlist.o
 .bss           0x00000000        0x0 ./ra/tes/dave2d/src/dave_dlist.o
 .text.d2_deinitdlist_intern
                0x00000000       0x9e ./ra/tes/dave2d/src/dave_dlist.o
 .text.d2_dlist2dlist_intern
                0x00000000      0x1a8 ./ra/tes/dave2d/src/dave_dlist.o
 .text.d2_executedlist
                0x00000000       0x56 ./ra/tes/dave2d/src/dave_dlist.o
 .text.d2_adddlist
                0x00000000       0x90 ./ra/tes/dave2d/src/dave_dlist.o
 .text          0x00000000        0x0 ./ra/tes/dave2d/src/dave_driver.o
 .data          0x00000000        0x0 ./ra/tes/dave2d/src/dave_driver.o
 .bss           0x00000000        0x0 ./ra/tes/dave2d/src/dave_driver.o
 .text.d2_getversionstring
                0x00000000       0x14 ./ra/tes/dave2d/src/dave_driver.o
 .text.d2_getversion
                0x00000000       0x14 ./ra/tes/dave2d/src/dave_driver.o
 .text.d2_closedevice
                0x00000000       0xa8 ./ra/tes/dave2d/src/dave_driver.o
 .text.d2_deinithw
                0x00000000       0xca ./ra/tes/dave2d/src/dave_driver.o
 .text.d2_getrevisionhw
                0x00000000       0x1a ./ra/tes/dave2d/src/dave_driver.o
 .text.d2_strcpy
                0x00000000       0x60 ./ra/tes/dave2d/src/dave_driver.o
 .text.d2_strcat
                0x00000000       0x44 ./ra/tes/dave2d/src/dave_driver.o
 .text.d2_hextostr
                0x00000000       0xb6 ./ra/tes/dave2d/src/dave_driver.o
 .rodata        0x00000000       0x50 ./ra/tes/dave2d/src/dave_driver.o
 .text.d2_getrevisionstringhw
                0x00000000      0x134 ./ra/tes/dave2d/src/dave_driver.o
 .text.d2_lowlocalmemmode
                0x00000000       0x5a ./ra/tes/dave2d/src/dave_driver.o
 .text.d2_getrendermode
                0x00000000       0x22 ./ra/tes/dave2d/src/dave_driver.o
 .text.d2_outlinewidth
                0x00000000       0x26 ./ra/tes/dave2d/src/dave_driver.o
 .text.d2_shadowoffset
                0x00000000       0x32 ./ra/tes/dave2d/src/dave_driver.o
 .text.d2_setdlistblocksize
                0x00000000       0x2e ./ra/tes/dave2d/src/dave_driver.o
 .text.d2_getdlistblocksize
                0x00000000       0x1a ./ra/tes/dave2d/src/dave_driver.o
 .text.d2_getdlistblockcount
                0x00000000       0x7e ./ra/tes/dave2d/src/dave_driver.o
 .text.d2_commandspending
                0x00000000       0x4e ./ra/tes/dave2d/src/dave_driver.o
 .rodata.g_versionid.3
                0x00000000       0x31 ./ra/tes/dave2d/src/dave_driver.o
 .rodata.g_hwrevision.2
                0x00000000       0x30 ./ra/tes/dave2d/src/dave_driver.o
 .bss.g_revisionstring.1
                0x00000000      0x100 ./ra/tes/dave2d/src/dave_driver.o
 .rodata.g_hwfeatures.0
                0x00000000      0x300 ./ra/tes/dave2d/src/dave_driver.o
 .text          0x00000000        0x0 ./ra/tes/dave2d/src/dave_edge.o
 .data          0x00000000        0x0 ./ra/tes/dave2d/src/dave_edge.o
 .bss           0x00000000        0x0 ./ra/tes/dave2d/src/dave_edge.o
 .text          0x00000000        0x0 ./ra/tes/dave2d/src/dave_errorcodes.o
 .data          0x00000000        0x0 ./ra/tes/dave2d/src/dave_errorcodes.o
 .bss           0x00000000        0x0 ./ra/tes/dave2d/src/dave_errorcodes.o
 .text          0x00000000        0x0 ./ra/tes/dave2d/src/dave_gradient.o
 .data          0x00000000        0x0 ./ra/tes/dave2d/src/dave_gradient.o
 .bss           0x00000000        0x0 ./ra/tes/dave2d/src/dave_gradient.o
 .text          0x00000000        0x0 ./ra/tes/dave2d/src/dave_hardware.o
 .data          0x00000000        0x0 ./ra/tes/dave2d/src/dave_hardware.o
 .bss           0x00000000        0x0 ./ra/tes/dave2d/src/dave_hardware.o
 .text.d2hw_release
                0x00000000       0x22 ./ra/tes/dave2d/src/dave_hardware.o
 .text.d2hw_get
                0x00000000       0x20 ./ra/tes/dave2d/src/dave_hardware.o
 .text          0x00000000        0x0 ./ra/tes/dave2d/src/dave_line.o
 .data          0x00000000        0x0 ./ra/tes/dave2d/src/dave_line.o
 .bss           0x00000000        0x0 ./ra/tes/dave2d/src/dave_line.o
 .text.d2_renderline2_solid
                0x00000000       0x60 ./ra/tes/dave2d/src/dave_line.o
 .text.d2_renderline2_outline
                0x00000000       0x82 ./ra/tes/dave2d/src/dave_line.o
 .text.d2_renderline2_shadow
                0x00000000       0x8e ./ra/tes/dave2d/src/dave_line.o
 .text.d2_renderline2_solidshadow
                0x00000000       0xd6 ./ra/tes/dave2d/src/dave_line.o
 .text.d2_renderline2_solidoutline
                0x00000000       0xca ./ra/tes/dave2d/src/dave_line.o
 .text          0x00000000        0x0 ./ra/tes/dave2d/src/dave_math.o
 .data          0x00000000        0x0 ./ra/tes/dave2d/src/dave_math.o
 .bss           0x00000000        0x0 ./ra/tes/dave2d/src/dave_math.o
 .text.d2_pow2mask
                0x00000000       0x48 ./ra/tes/dave2d/src/dave_math.o
 .text          0x00000000        0x0 ./ra/tes/dave2d/src/dave_memory.o
 .data          0x00000000        0x0 ./ra/tes/dave2d/src/dave_memory.o
 .bss           0x00000000        0x0 ./ra/tes/dave2d/src/dave_memory.o
 .text          0x00000000        0x0 ./ra/tes/dave2d/src/dave_pattern.o
 .data          0x00000000        0x0 ./ra/tes/dave2d/src/dave_pattern.o
 .bss           0x00000000        0x0 ./ra/tes/dave2d/src/dave_pattern.o
 .text          0x00000000        0x0 ./ra/tes/dave2d/src/dave_perfcount.o
 .data          0x00000000        0x0 ./ra/tes/dave2d/src/dave_perfcount.o
 .bss           0x00000000        0x0 ./ra/tes/dave2d/src/dave_perfcount.o
 .text.d2_seterr
                0x00000000       0x22 ./ra/tes/dave2d/src/dave_perfcount.o
 .text.d2_setperfcountevent
                0x00000000      0x104 ./ra/tes/dave2d/src/dave_perfcount.o
 .text.d2_setperfcountvalue
                0x00000000       0x64 ./ra/tes/dave2d/src/dave_perfcount.o
 .text.d2_getperfcountvalue
                0x00000000       0x36 ./ra/tes/dave2d/src/dave_perfcount.o
 .debug_info    0x00000000     0x1068 ./ra/tes/dave2d/src/dave_perfcount.o
 .debug_abbrev  0x00000000      0x191 ./ra/tes/dave2d/src/dave_perfcount.o
 .debug_aranges
                0x00000000       0x38 ./ra/tes/dave2d/src/dave_perfcount.o
 .debug_ranges  0x00000000       0x28 ./ra/tes/dave2d/src/dave_perfcount.o
 .debug_line    0x00000000      0x20e ./ra/tes/dave2d/src/dave_perfcount.o
 .debug_str     0x00000000      0xed5 ./ra/tes/dave2d/src/dave_perfcount.o
 .comment       0x00000000       0x45 ./ra/tes/dave2d/src/dave_perfcount.o
 .debug_frame   0x00000000       0xa4 ./ra/tes/dave2d/src/dave_perfcount.o
 .ARM.attributes
                0x00000000       0x3e ./ra/tes/dave2d/src/dave_perfcount.o
 .text          0x00000000        0x0 ./ra/tes/dave2d/src/dave_polyline.o
 .data          0x00000000        0x0 ./ra/tes/dave2d/src/dave_polyline.o
 .bss           0x00000000        0x0 ./ra/tes/dave2d/src/dave_polyline.o
 .text.d2_renderpolyline2_intern
                0x00000000      0x232 ./ra/tes/dave2d/src/dave_polyline.o
 .text.d2_renderpolyline2_solid
                0x00000000       0x3e ./ra/tes/dave2d/src/dave_polyline.o
 .text.d2_renderpolyline2_shadow
                0x00000000       0x52 ./ra/tes/dave2d/src/dave_polyline.o
 .text.d2_renderpolyline2_outline
                0x00000000       0x4a ./ra/tes/dave2d/src/dave_polyline.o
 .text.d2_renderpolyline2_solidshadow
                0x00000000       0x84 ./ra/tes/dave2d/src/dave_polyline.o
 .text.d2_renderpolyline2_solidoutline
                0x00000000       0x7c ./ra/tes/dave2d/src/dave_polyline.o
 .text          0x00000000        0x0 ./ra/tes/dave2d/src/dave_quad.o
 .data          0x00000000        0x0 ./ra/tes/dave2d/src/dave_quad.o
 .bss           0x00000000        0x0 ./ra/tes/dave2d/src/dave_quad.o
 .text.d2_add2dlist_intern
                0x00000000       0x5a ./ra/tes/dave2d/src/dave_quad.o
 .text.d2_renderquad_intern
                0x00000000      0x8e4 ./ra/tes/dave2d/src/dave_quad.o
 .text.d2_renderquad_outline
                0x00000000      0x42c ./ra/tes/dave2d/src/dave_quad.o
 .text.d2_renderquad_solid
                0x00000000       0x60 ./ra/tes/dave2d/src/dave_quad.o
 .text.d2_renderquad_solidoutline
                0x00000000       0xa2 ./ra/tes/dave2d/src/dave_quad.o
 .text.d2_renderquad_shadow
                0x00000000       0xac ./ra/tes/dave2d/src/dave_quad.o
 .text.d2_renderquad_solidshadow
                0x00000000       0xf4 ./ra/tes/dave2d/src/dave_quad.o
 .debug_info    0x00000000     0x17d4 ./ra/tes/dave2d/src/dave_quad.o
 .debug_abbrev  0x00000000      0x238 ./ra/tes/dave2d/src/dave_quad.o
 .debug_aranges
                0x00000000       0x50 ./ra/tes/dave2d/src/dave_quad.o
 .debug_ranges  0x00000000       0x40 ./ra/tes/dave2d/src/dave_quad.o
 .debug_line    0x00000000      0x730 ./ra/tes/dave2d/src/dave_quad.o
 .debug_str     0x00000000      0xe90 ./ra/tes/dave2d/src/dave_quad.o
 .comment       0x00000000       0x45 ./ra/tes/dave2d/src/dave_quad.o
 .debug_frame   0x00000000      0x128 ./ra/tes/dave2d/src/dave_quad.o
 .ARM.attributes
                0x00000000       0x3e ./ra/tes/dave2d/src/dave_quad.o
 .text          0x00000000        0x0 ./ra/tes/dave2d/src/dave_rbuffer.o
 .data          0x00000000        0x0 ./ra/tes/dave2d/src/dave_rbuffer.o
 .bss           0x00000000        0x0 ./ra/tes/dave2d/src/dave_rbuffer.o
 .text.d2_freerenderbuffer
                0x00000000       0x82 ./ra/tes/dave2d/src/dave_rbuffer.o
 .text.d2_getrenderbuffer
                0x00000000       0x5c ./ra/tes/dave2d/src/dave_rbuffer.o
 .text.d2_relocateframe
                0x00000000      0x2b2 ./ra/tes/dave2d/src/dave_rbuffer.o
 .text.d2_dumprenderbuffer
                0x00000000      0x300 ./ra/tes/dave2d/src/dave_rbuffer.o
 .text.d2_getrenderbuffersize
                0x00000000       0x6c ./ra/tes/dave2d/src/dave_rbuffer.o
 .text.d2_freedumpedbuffer
                0x00000000       0x28 ./ra/tes/dave2d/src/dave_rbuffer.o
 .text          0x00000000        0x0 ./ra/tes/dave2d/src/dave_render.o
 .data          0x00000000        0x0 ./ra/tes/dave2d/src/dave_render.o
 .bss           0x00000000        0x0 ./ra/tes/dave2d/src/dave_render.o
 .text.d2_rendertrifan_intern
                0x00000000       0xce ./ra/tes/dave2d/src/dave_render.o
 .text.d2_renderline2
                0x00000000      0x178 ./ra/tes/dave2d/src/dave_render.o
 .text.d2_renderquad
                0x00000000      0x1c0 ./ra/tes/dave2d/src/dave_render.o
 .text.d2_rendercircle
                0x00000000      0x118 ./ra/tes/dave2d/src/dave_render.o
 .text.d2_renderwedge
                0x00000000      0x190 ./ra/tes/dave2d/src/dave_render.o
 .text.d2_renderpolyline2
                0x00000000       0xd0 ./ra/tes/dave2d/src/dave_render.o
 .text.d2_rendertrilist
                0x00000000       0xa0 ./ra/tes/dave2d/src/dave_render.o
 .text.d2_rendertristrip
                0x00000000      0x140 ./ra/tes/dave2d/src/dave_render.o
 .text.d2_rendertrifan
                0x00000000       0xac ./ra/tes/dave2d/src/dave_render.o
 .text.d2_renderpolygon
                0x00000000       0x30 ./ra/tes/dave2d/src/dave_render.o
 .text          0x00000000        0x0 ./ra/tes/dave2d/src/dave_texture.o
 .data          0x00000000        0x0 ./ra/tes/dave2d/src/dave_texture.o
 .bss           0x00000000        0x0 ./ra/tes/dave2d/src/dave_texture.o
 .text.d2_seterr
                0x00000000       0x22 ./ra/tes/dave2d/src/dave_texture.o
 .text.d2_bitpos_intern
                0x00000000       0x4a ./ra/tes/dave2d/src/dave_texture.o
 .text.d2_settexture
                0x00000000      0x55c ./ra/tes/dave2d/src/dave_texture.o
 .text.d2_settexturemode
                0x00000000       0xba ./ra/tes/dave2d/src/dave_texture.o
 .text.d2_settextureoperation
                0x00000000       0x76 ./ra/tes/dave2d/src/dave_texture.o
 .text.d2_settexopparam
                0x00000000       0xba ./ra/tes/dave2d/src/dave_texture.o
 .text.d2_settexturemapping
                0x00000000       0x8e ./ra/tes/dave2d/src/dave_texture.o
 .text.d2_settexelcenter
                0x00000000       0x52 ./ra/tes/dave2d/src/dave_texture.o
 .text.d2_settexclut
                0x00000000       0xf0 ./ra/tes/dave2d/src/dave_texture.o
 .text.d2_settexclut_part
                0x00000000      0x14a ./ra/tes/dave2d/src/dave_texture.o
 .text.d2_writetexclut_direct
                0x00000000       0x9a ./ra/tes/dave2d/src/dave_texture.o
 .text.d2_settexclut_offset
                0x00000000       0x74 ./ra/tes/dave2d/src/dave_texture.o
 .text.d2_settexclut_format
                0x00000000       0x7a ./ra/tes/dave2d/src/dave_texture.o
 .text.d2_setcolorkey
                0x00000000       0x7a ./ra/tes/dave2d/src/dave_texture.o
 .text.d2_gettextureoperationa
                0x00000000       0x24 ./ra/tes/dave2d/src/dave_texture.o
 .text.d2_gettextureoperationr
                0x00000000       0x24 ./ra/tes/dave2d/src/dave_texture.o
 .text.d2_gettextureoperationg
                0x00000000       0x24 ./ra/tes/dave2d/src/dave_texture.o
 .text.d2_gettextureoperationb
                0x00000000       0x24 ./ra/tes/dave2d/src/dave_texture.o
 .text.d2_gettexopparam1
                0x00000000       0x70 ./ra/tes/dave2d/src/dave_texture.o
 .text.d2_gettexopparam2
                0x00000000       0x70 ./ra/tes/dave2d/src/dave_texture.o
 .text.d2_calctexturemask_intern
                0x00000000       0x98 ./ra/tes/dave2d/src/dave_texture.o
 .text          0x00000000        0x0 ./ra/tes/dave2d/src/dave_triangle.o
 .data          0x00000000        0x0 ./ra/tes/dave2d/src/dave_triangle.o
 .bss           0x00000000        0x0 ./ra/tes/dave2d/src/dave_triangle.o
 .text          0x00000000        0x0 ./ra/tes/dave2d/src/dave_utility.o
 .data          0x00000000        0x0 ./ra/tes/dave2d/src/dave_utility.o
 .bss           0x00000000        0x0 ./ra/tes/dave2d/src/dave_utility.o
 .text.d2_utility_maptriangle
                0x00000000      0x2fc ./ra/tes/dave2d/src/dave_utility.o
 .text.d2_utility_perspectivewarp
                0x00000000      0x172 ./ra/tes/dave2d/src/dave_utility.o
 .text.d2_utility_fbblitcopy
                0x00000000      0x2ae ./ra/tes/dave2d/src/dave_utility.o
 .text.d2_rendercircle_no_hilimiterprecision
                0x00000000       0x48 ./ra/tes/dave2d/src/dave_utility.o
 .debug_info    0x00000000     0x13fb ./ra/tes/dave2d/src/dave_utility.o
 .debug_abbrev  0x00000000      0x223 ./ra/tes/dave2d/src/dave_utility.o
 .debug_aranges
                0x00000000       0x38 ./ra/tes/dave2d/src/dave_utility.o
 .debug_ranges  0x00000000       0x28 ./ra/tes/dave2d/src/dave_utility.o
 .debug_line    0x00000000      0x48f ./ra/tes/dave2d/src/dave_utility.o
 .debug_str     0x00000000      0xe05 ./ra/tes/dave2d/src/dave_utility.o
 .comment       0x00000000       0x45 ./ra/tes/dave2d/src/dave_utility.o
 .debug_frame   0x00000000       0xb8 ./ra/tes/dave2d/src/dave_utility.o
 .ARM.attributes
                0x00000000       0x3e ./ra/tes/dave2d/src/dave_utility.o
 .text          0x00000000        0x0 ./ra/tes/dave2d/src/dave_viewport.o
 .data          0x00000000        0x0 ./ra/tes/dave2d/src/dave_viewport.o
 .bss           0x00000000        0x0 ./ra/tes/dave2d/src/dave_viewport.o
 .text.d2_getcliprect
                0x00000000       0x70 ./ra/tes/dave2d/src/dave_viewport.o
 .text.d2_getframebuffer
                0x00000000       0x66 ./ra/tes/dave2d/src/dave_viewport.o
 .text          0x00000000        0x0 ./ra/tes/dave2d/src/dave_wedge.o
 .data          0x00000000        0x0 ./ra/tes/dave2d/src/dave_wedge.o
 .bss           0x00000000        0x0 ./ra/tes/dave2d/src/dave_wedge.o
 .text.count_leading_zeroes16
                0x00000000       0x86 ./ra/tes/dave2d/src/dave_wedge.o
 .text.is_same_direction
                0x00000000      0x178 ./ra/tes/dave2d/src/dave_wedge.o
 .text.d2_renderwedge_intern
                0x00000000      0x316 ./ra/tes/dave2d/src/dave_wedge.o
 .text.d2_renderwedge_solid
                0x00000000       0x58 ./ra/tes/dave2d/src/dave_wedge.o
 .text.d2_renderwedge_outline
                0x00000000       0x6a ./ra/tes/dave2d/src/dave_wedge.o
 .text.d2_renderwedge_shadow
                0x00000000       0x76 ./ra/tes/dave2d/src/dave_wedge.o
 .text.d2_renderwedge_solidoutline
                0x00000000       0xaa ./ra/tes/dave2d/src/dave_wedge.o
 .text.d2_renderwedge_solidshadow
                0x00000000       0xb6 ./ra/tes/dave2d/src/dave_wedge.o
 .debug_info    0x00000000     0x15b2 ./ra/tes/dave2d/src/dave_wedge.o
 .debug_abbrev  0x00000000      0x22d ./ra/tes/dave2d/src/dave_wedge.o
 .debug_aranges
                0x00000000       0x58 ./ra/tes/dave2d/src/dave_wedge.o
 .debug_ranges  0x00000000       0x48 ./ra/tes/dave2d/src/dave_wedge.o
 .debug_line    0x00000000      0x4fb ./ra/tes/dave2d/src/dave_wedge.o
 .debug_str     0x00000000      0xdcd ./ra/tes/dave2d/src/dave_wedge.o
 .comment       0x00000000       0x45 ./ra/tes/dave2d/src/dave_wedge.o
 .debug_frame   0x00000000      0x144 ./ra/tes/dave2d/src/dave_wedge.o
 .ARM.attributes
                0x00000000       0x3e ./ra/tes/dave2d/src/dave_wedge.o
 .text          0x00000000        0x0 ./ra/fsp/src/r_sci_b_uart/r_sci_b_uart.o
 .data          0x00000000        0x0 ./ra/fsp/src/r_sci_b_uart/r_sci_b_uart.o
 .bss           0x00000000        0x0 ./ra/fsp/src/r_sci_b_uart/r_sci_b_uart.o
 .text.R_FSP_ClockDividerGet
                0x00000000       0x44 ./ra/fsp/src/r_sci_b_uart/r_sci_b_uart.o
 .text.R_FSP_SciClockHzGet
                0x00000000       0x48 ./ra/fsp/src/r_sci_b_uart/r_sci_b_uart.o
 .rodata.SCI_B_UART_100_PERCENT_X_1000
                0x00000000        0x4 ./ra/fsp/src/r_sci_b_uart/r_sci_b_uart.o
 .rodata.SCI_B_UART_MDDR_DIVISOR
                0x00000000        0x4 ./ra/fsp/src/r_sci_b_uart/r_sci_b_uart.o
 .rodata.SCI_B_UART_MAX_BAUD_RATE_ERROR_X_1000
                0x00000000        0x4 ./ra/fsp/src/r_sci_b_uart/r_sci_b_uart.o
 .rodata.g_async_baud
                0x00000000        0xd ./ra/fsp/src/r_sci_b_uart/r_sci_b_uart.o
 .rodata.g_div_coefficient
                0x00000000       0x1a ./ra/fsp/src/r_sci_b_uart/r_sci_b_uart.o
 .text.R_SCI_B_UART_BaudCalculate
                0x00000000      0x260 ./ra/fsp/src/r_sci_b_uart/r_sci_b_uart.o
 .rodata.__func__.1
                0x00000000       0x1b ./ra/fsp/src/r_sci_b_uart/r_sci_b_uart.o
 .text          0x00000000        0x0 ./ra/fsp/src/r_mipi_phy/r_mipi_phy.o
 .data          0x00000000        0x0 ./ra/fsp/src/r_mipi_phy/r_mipi_phy.o
 .bss           0x00000000        0x0 ./ra/fsp/src/r_mipi_phy/r_mipi_phy.o
 .text          0x00000000        0x0 ./ra/fsp/src/r_mipi_dsi/r_mipi_dsi.o
 .data          0x00000000        0x0 ./ra/fsp/src/r_mipi_dsi/r_mipi_dsi.o
 .bss           0x00000000        0x0 ./ra/fsp/src/r_mipi_dsi/r_mipi_dsi.o
 .text          0x00000000        0x0 ./ra/fsp/src/r_ioport/r_ioport.o
 .data          0x00000000        0x0 ./ra/fsp/src/r_ioport/r_ioport.o
 .bss           0x00000000        0x0 ./ra/fsp/src/r_ioport/r_ioport.o
 .text          0x00000000        0x0 ./ra/fsp/src/r_gpt/r_gpt.o
 .data          0x00000000        0x0 ./ra/fsp/src/r_gpt/r_gpt.o
 .bss           0x00000000        0x0 ./ra/fsp/src/r_gpt/r_gpt.o
 .text.R_GPT_CounterSet
                0x00000000       0x7c ./ra/fsp/src/r_gpt/r_gpt.o
 .text.R_GPT_OutputEnable
                0x00000000       0x90 ./ra/fsp/src/r_gpt/r_gpt.o
 .text.R_GPT_OutputDisable
                0x00000000       0x90 ./ra/fsp/src/r_gpt/r_gpt.o
 .text.R_GPT_AdcTriggerSet
                0x00000000       0x78 ./ra/fsp/src/r_gpt/r_gpt.o
 .text.R_GPT_PwmOutputDelaySet
                0x00000000       0x20 ./ra/fsp/src/r_gpt/r_gpt.o
 .text.R_GPT_PwmOutputDelayInitialize
                0x00000000       0x10 ./ra/fsp/src/r_gpt/r_gpt.o
 .text.r_gpt_ccmp_common_isr
                0x00000000       0x94 ./ra/fsp/src/r_gpt/r_gpt.o
 .text.gpt_capture_compare_a_isr
                0x00000000        0xe ./ra/fsp/src/r_gpt/r_gpt.o
 .text.gpt_capture_compare_b_isr
                0x00000000        0xe ./ra/fsp/src/r_gpt/r_gpt.o
 .rodata.__func__.5
                0x00000000       0x11 ./ra/fsp/src/r_gpt/r_gpt.o
 .rodata.__func__.4
                0x00000000       0x13 ./ra/fsp/src/r_gpt/r_gpt.o
 .rodata.__func__.3
                0x00000000       0x14 ./ra/fsp/src/r_gpt/r_gpt.o
 .rodata.__func__.2
                0x00000000       0x14 ./ra/fsp/src/r_gpt/r_gpt.o
 .text          0x00000000        0x0 ./ra/fsp/src/r_glcdc/r_glcdc.o
 .data          0x00000000        0x0 ./ra/fsp/src/r_glcdc/r_glcdc.o
 .bss           0x00000000        0x0 ./ra/fsp/src/r_glcdc/r_glcdc.o
 .text.glcdc_underflow_1_isr
                0x00000000       0x58 ./ra/fsp/src/r_glcdc/r_glcdc.o
 .text.glcdc_underflow_2_isr
                0x00000000       0x58 ./ra/fsp/src/r_glcdc/r_glcdc.o
 .text          0x00000000        0x0 ./ra/fsp/src/r_drw/r_drw_base.o
 .data          0x00000000        0x0 ./ra/fsp/src/r_drw/r_drw_base.o
 .bss           0x00000000        0x0 ./ra/fsp/src/r_drw/r_drw_base.o
 .text.d1_closedevice
                0x00000000       0x60 ./ra/fsp/src/r_drw/r_drw_base.o
 .text          0x00000000        0x0 ./ra/fsp/src/r_drw/r_drw_irq.o
 .data          0x00000000        0x0 ./ra/fsp/src/r_drw/r_drw_irq.o
 .bss           0x00000000        0x0 ./ra/fsp/src/r_drw/r_drw_irq.o
 .text.__NVIC_DisableIRQ
                0x00000000       0x48 ./ra/fsp/src/r_drw/r_drw_irq.o
 .text.d1_shutdownirq_intern
                0x00000000       0x24 ./ra/fsp/src/r_drw/r_drw_irq.o
 .text          0x00000000        0x0 ./ra/fsp/src/r_drw/r_drw_memory.o
 .data          0x00000000        0x0 ./ra/fsp/src/r_drw/r_drw_memory.o
 .bss           0x00000000        0x0 ./ra/fsp/src/r_drw/r_drw_memory.o
 .text.d1_queryvidmem
                0x00000000       0x1a ./ra/fsp/src/r_drw/r_drw_memory.o
 .text.d1_mapvidmem
                0x00000000       0x1a ./ra/fsp/src/r_drw/r_drw_memory.o
 .text.d1_unmapvidmem
                0x00000000       0x18 ./ra/fsp/src/r_drw/r_drw_memory.o
 .text.d1_copyfromvidmem
                0x00000000       0x22 ./ra/fsp/src/r_drw/r_drw_memory.o
 .text.d1_cacheflush
                0x00000000       0x18 ./ra/fsp/src/r_drw/r_drw_memory.o
 .text          0x00000000        0x0 ./ra/fsp/src/bsp/mcu/all/bsp_clocks.o
 .data          0x00000000        0x0 ./ra/fsp/src/bsp/mcu/all/bsp_clocks.o
 .bss           0x00000000        0x0 ./ra/fsp/src/bsp/mcu/all/bsp_clocks.o
 .text.bsp_prv_operating_mode_opccr_set
                0x00000000       0x44 ./ra/fsp/src/bsp/mcu/all/bsp_clocks.o
 .text.bsp_prv_operating_mode_set
                0x00000000       0x1a ./ra/fsp/src/bsp/mcu/all/bsp_clocks.o
 .text.bsp_prv_prepare_pll
                0x00000000       0x5c ./ra/fsp/src/bsp/mcu/all/bsp_clocks.o
 .text.prv_clock_dividers_set
                0x00000000       0xa8 ./ra/fsp/src/bsp/mcu/all/bsp_clocks.o
 .text.bsp_prv_clock_set
                0x00000000      0x238 ./ra/fsp/src/bsp/mcu/all/bsp_clocks.o
 .text.bsp_prv_clock_prepare_pre_sleep
                0x00000000       0x5c ./ra/fsp/src/bsp/mcu/all/bsp_clocks.o
 .text.bsp_prv_clock_prepare_post_sleep
                0x00000000       0x38 ./ra/fsp/src/bsp/mcu/all/bsp_clocks.o
 .text.R_BSP_SubClockStabilizeWait
                0x00000000       0x1a ./ra/fsp/src/bsp/mcu/all/bsp_clocks.o
 .text.bsp_clock_set_prechange
                0x00000000       0xc0 ./ra/fsp/src/bsp/mcu/all/bsp_clocks.o
 .text.bsp_clock_set_postchange
                0x00000000       0x60 ./ra/fsp/src/bsp/mcu/all/bsp_clocks.o
 .text.R_BSP_OctaclkUpdate
                0x00000000       0x84 ./ra/fsp/src/bsp/mcu/all/bsp_clocks.o
 .text.R_BSP_SourceClockHzGet
                0x00000000       0x28 ./ra/fsp/src/bsp/mcu/all/bsp_clocks.o
 .text          0x00000000        0x0 ./ra/fsp/src/bsp/mcu/all/bsp_common.o
 .data          0x00000000        0x0 ./ra/fsp/src/bsp/mcu/all/bsp_common.o
 .bss           0x00000000        0x0 ./ra/fsp/src/bsp/mcu/all/bsp_common.o
 .text.bsp_init_internal
                0x00000000       0x14 ./ra/fsp/src/bsp/mcu/all/bsp_common.o
 .text          0x00000000        0x0 ./ra/fsp/src/bsp/mcu/all/bsp_delay.o
 .data          0x00000000        0x0 ./ra/fsp/src/bsp/mcu/all/bsp_delay.o
 .bss           0x00000000        0x0 ./ra/fsp/src/bsp/mcu/all/bsp_delay.o
 .text          0x00000000        0x0 ./ra/fsp/src/bsp/mcu/all/bsp_group_irq.o
 .data          0x00000000        0x0 ./ra/fsp/src/bsp/mcu/all/bsp_group_irq.o
 .bss           0x00000000        0x0 ./ra/fsp/src/bsp/mcu/all/bsp_group_irq.o
 .rodata        0x00000000       0x36 ./ra/fsp/src/bsp/mcu/all/bsp_group_irq.o
 .text.R_BSP_GroupIrqWrite
                0x00000000       0x44 ./ra/fsp/src/bsp/mcu/all/bsp_group_irq.o
 .rodata.__func__.0
                0x00000000       0x14 ./ra/fsp/src/bsp/mcu/all/bsp_group_irq.o
 .text          0x00000000        0x0 ./ra/fsp/src/bsp/mcu/all/bsp_guard.o
 .data          0x00000000        0x0 ./ra/fsp/src/bsp/mcu/all/bsp_guard.o
 .bss           0x00000000        0x0 ./ra/fsp/src/bsp/mcu/all/bsp_guard.o
 .debug_info    0x00000000       0x79 ./ra/fsp/src/bsp/mcu/all/bsp_guard.o
 .debug_abbrev  0x00000000       0x26 ./ra/fsp/src/bsp/mcu/all/bsp_guard.o
 .debug_aranges
                0x00000000       0x18 ./ra/fsp/src/bsp/mcu/all/bsp_guard.o
 .debug_line    0x00000000       0x46 ./ra/fsp/src/bsp/mcu/all/bsp_guard.o
 .debug_str     0x00000000      0x1eb ./ra/fsp/src/bsp/mcu/all/bsp_guard.o
 .comment       0x00000000       0x45 ./ra/fsp/src/bsp/mcu/all/bsp_guard.o
 .ARM.attributes
                0x00000000       0x3e ./ra/fsp/src/bsp/mcu/all/bsp_guard.o
 .text          0x00000000        0x0 ./ra/fsp/src/bsp/mcu/all/bsp_io.o
 .data          0x00000000        0x0 ./ra/fsp/src/bsp/mcu/all/bsp_io.o
 .bss           0x00000000        0x0 ./ra/fsp/src/bsp/mcu/all/bsp_io.o
 .text          0x00000000        0x0 ./ra/fsp/src/bsp/mcu/all/bsp_irq.o
 .data          0x00000000        0x0 ./ra/fsp/src/bsp/mcu/all/bsp_irq.o
 .bss           0x00000000        0x0 ./ra/fsp/src/bsp/mcu/all/bsp_irq.o
 .rodata.g_interrupt_event_link_select
                0x00000000       0xc0 ./ra/fsp/src/bsp/mcu/all/bsp_irq.o
 .text          0x00000000        0x0 ./ra/fsp/src/bsp/mcu/all/bsp_macl.o
 .data          0x00000000        0x0 ./ra/fsp/src/bsp/mcu/all/bsp_macl.o
 .bss           0x00000000        0x0 ./ra/fsp/src/bsp/mcu/all/bsp_macl.o
 .debug_info    0x00000000       0x79 ./ra/fsp/src/bsp/mcu/all/bsp_macl.o
 .debug_abbrev  0x00000000       0x26 ./ra/fsp/src/bsp/mcu/all/bsp_macl.o
 .debug_aranges
                0x00000000       0x18 ./ra/fsp/src/bsp/mcu/all/bsp_macl.o
 .debug_line    0x00000000       0x45 ./ra/fsp/src/bsp/mcu/all/bsp_macl.o
 .debug_str     0x00000000      0x1ea ./ra/fsp/src/bsp/mcu/all/bsp_macl.o
 .comment       0x00000000       0x45 ./ra/fsp/src/bsp/mcu/all/bsp_macl.o
 .ARM.attributes
                0x00000000       0x3e ./ra/fsp/src/bsp/mcu/all/bsp_macl.o
 .text          0x00000000        0x0 ./ra/fsp/src/bsp/mcu/all/bsp_register_protection.o
 .data          0x00000000        0x0 ./ra/fsp/src/bsp/mcu/all/bsp_register_protection.o
 .bss           0x00000000        0x0 ./ra/fsp/src/bsp/mcu/all/bsp_register_protection.o
 .text          0x00000000        0x0 ./ra/fsp/src/bsp/mcu/all/bsp_rom_registers.o
 .data          0x00000000        0x0 ./ra/fsp/src/bsp/mcu/all/bsp_rom_registers.o
 .bss           0x00000000        0x0 ./ra/fsp/src/bsp/mcu/all/bsp_rom_registers.o
 .text          0x00000000        0x0 ./ra/fsp/src/bsp/mcu/all/bsp_sbrk.o
 .data          0x00000000        0x0 ./ra/fsp/src/bsp/mcu/all/bsp_sbrk.o
 .bss           0x00000000        0x0 ./ra/fsp/src/bsp/mcu/all/bsp_sbrk.o
 .text          0x00000000        0x0 ./ra/fsp/src/bsp/mcu/all/bsp_security.o
 .data          0x00000000        0x0 ./ra/fsp/src/bsp/mcu/all/bsp_security.o
 .bss           0x00000000        0x0 ./ra/fsp/src/bsp/mcu/all/bsp_security.o
 .rodata.gp_start_of_nonsecure_flash
                0x00000000        0x4 ./ra/fsp/src/bsp/mcu/all/bsp_security.o
 .rodata.gp_start_of_nonsecure_callable_flash
                0x00000000        0x4 ./ra/fsp/src/bsp/mcu/all/bsp_security.o
 .rodata.gp_start_of_nonsecure_data_flash
                0x00000000        0x4 ./ra/fsp/src/bsp/mcu/all/bsp_security.o
 .rodata.gp_start_of_nonsecure_ram
                0x00000000        0x4 ./ra/fsp/src/bsp/mcu/all/bsp_security.o
 .rodata.gp_start_of_nonsecure_callable_ram
                0x00000000        0x4 ./ra/fsp/src/bsp/mcu/all/bsp_security.o
 .rodata.gp_start_of_nonsecure_itcm
                0x00000000        0x4 ./ra/fsp/src/bsp/mcu/all/bsp_security.o
 .rodata.gp_start_of_secure_itcm
                0x00000000        0x4 ./ra/fsp/src/bsp/mcu/all/bsp_security.o
 .rodata.gp_start_of_nonsecure_dtcm
                0x00000000        0x4 ./ra/fsp/src/bsp/mcu/all/bsp_security.o
 .rodata.gp_start_of_secure_dtcm
                0x00000000        0x4 ./ra/fsp/src/bsp/mcu/all/bsp_security.o
 .debug_info    0x00000000      0x1b8 ./ra/fsp/src/bsp/mcu/all/bsp_security.o
 .debug_abbrev  0x00000000       0x6b ./ra/fsp/src/bsp/mcu/all/bsp_security.o
 .debug_aranges
                0x00000000       0x18 ./ra/fsp/src/bsp/mcu/all/bsp_security.o
 .debug_line    0x00000000      0x124 ./ra/fsp/src/bsp/mcu/all/bsp_security.o
 .debug_str     0x00000000      0x38b ./ra/fsp/src/bsp/mcu/all/bsp_security.o
 .comment       0x00000000       0x45 ./ra/fsp/src/bsp/mcu/all/bsp_security.o
 .ARM.attributes
                0x00000000       0x3e ./ra/fsp/src/bsp/mcu/all/bsp_security.o
 .text          0x00000000        0x0 ./ra/fsp/src/bsp/cmsis/Device/RENESAS/Source/startup.o
 .data          0x00000000        0x0 ./ra/fsp/src/bsp/cmsis/Device/RENESAS/Source/startup.o
 .bss           0x00000000        0x0 ./ra/fsp/src/bsp/cmsis/Device/RENESAS/Source/startup.o
 .text          0x00000000        0x0 ./ra/fsp/src/bsp/cmsis/Device/RENESAS/Source/system.o
 .data          0x00000000        0x0 ./ra/fsp/src/bsp/cmsis/Device/RENESAS/Source/system.o
 .bss           0x00000000        0x0 ./ra/fsp/src/bsp/cmsis/Device/RENESAS/Source/system.o
 .text.R_BSP_WarmStart
                0x00000000       0x16 ./ra/fsp/src/bsp/cmsis/Device/RENESAS/Source/system.o
 .text          0x00000000        0x0 ./ra/board/ra8d1_ek/board_init.o
 .data          0x00000000        0x0 ./ra/board/ra8d1_ek/board_init.o
 .bss           0x00000000        0x0 ./ra/board/ra8d1_ek/board_init.o
 .text          0x00000000        0x0 ./ra/board/ra8d1_ek/board_leds.o
 .data          0x00000000        0x0 ./ra/board/ra8d1_ek/board_leds.o
 .bss           0x00000000        0x0 ./ra/board/ra8d1_ek/board_leds.o
 .text          0x00000000        0x0 ./ra/board/ra8d1_ek/board_sdram.o
 .data          0x00000000        0x0 ./ra/board/ra8d1_ek/board_sdram.o
 .bss           0x00000000        0x0 ./ra/board/ra8d1_ek/board_sdram.o
 .data          0x00000000        0x0 C:/Program Files (x86)/Arm GNU Toolchain arm-none-eabi/13.2 Rel1/bin/../lib/gcc/arm-none-eabi/13.2.1/thumb/v8-m.main+dp/hard\libgcc.a(_aeabi_ldivmod.o)
 .bss           0x00000000        0x0 C:/Program Files (x86)/Arm GNU Toolchain arm-none-eabi/13.2 Rel1/bin/../lib/gcc/arm-none-eabi/13.2.1/thumb/v8-m.main+dp/hard\libgcc.a(_aeabi_ldivmod.o)
 .text          0x00000000        0x0 C:/Program Files (x86)/Arm GNU Toolchain arm-none-eabi/13.2 Rel1/bin/../lib/gcc/arm-none-eabi/13.2.1/thumb/v8-m.main+dp/hard\libgcc.a(_udivmoddi4.o)
 .data          0x00000000        0x0 C:/Program Files (x86)/Arm GNU Toolchain arm-none-eabi/13.2 Rel1/bin/../lib/gcc/arm-none-eabi/13.2.1/thumb/v8-m.main+dp/hard\libgcc.a(_udivmoddi4.o)
 .bss           0x00000000        0x0 C:/Program Files (x86)/Arm GNU Toolchain arm-none-eabi/13.2 Rel1/bin/../lib/gcc/arm-none-eabi/13.2.1/thumb/v8-m.main+dp/hard\libgcc.a(_udivmoddi4.o)
 .ARM.extab.text.__udivmoddi4
                0x00000000        0x0 C:/Program Files (x86)/Arm GNU Toolchain arm-none-eabi/13.2 Rel1/bin/../lib/gcc/arm-none-eabi/13.2.1/thumb/v8-m.main+dp/hard\libgcc.a(_udivmoddi4.o)
 .ARM.exidx.text.__udivmoddi4
                0x00000000        0x8 C:/Program Files (x86)/Arm GNU Toolchain arm-none-eabi/13.2 Rel1/bin/../lib/gcc/arm-none-eabi/13.2.1/thumb/v8-m.main+dp/hard\libgcc.a(_udivmoddi4.o)
 .data          0x00000000        0x0 C:/Program Files (x86)/Arm GNU Toolchain arm-none-eabi/13.2 Rel1/bin/../lib/gcc/arm-none-eabi/13.2.1/thumb/v8-m.main+dp/hard\libgcc.a(_dvmd_tls.o)
 .bss           0x00000000        0x0 C:/Program Files (x86)/Arm GNU Toolchain arm-none-eabi/13.2 Rel1/bin/../lib/gcc/arm-none-eabi/13.2.1/thumb/v8-m.main+dp/hard\libgcc.a(_dvmd_tls.o)
 .text          0x00000000        0x0 C:/Program Files (x86)/Arm GNU Toolchain arm-none-eabi/13.2 Rel1/bin/../lib/gcc/arm-none-eabi/13.2.1/thumb/v8-m.main+dp/hard\libg_nano.a(libc_a-exit.o)
 .data          0x00000000        0x0 C:/Program Files (x86)/Arm GNU Toolchain arm-none-eabi/13.2 Rel1/bin/../lib/gcc/arm-none-eabi/13.2.1/thumb/v8-m.main+dp/hard\libg_nano.a(libc_a-exit.o)
 .bss           0x00000000        0x0 C:/Program Files (x86)/Arm GNU Toolchain arm-none-eabi/13.2 Rel1/bin/../lib/gcc/arm-none-eabi/13.2.1/thumb/v8-m.main+dp/hard\libg_nano.a(libc_a-exit.o)
 .text.exit     0x00000000       0x24 C:/Program Files (x86)/Arm GNU Toolchain arm-none-eabi/13.2 Rel1/bin/../lib/gcc/arm-none-eabi/13.2.1/thumb/v8-m.main+dp/hard\libg_nano.a(libc_a-exit.o)
 .debug_frame   0x00000000       0x28 C:/Program Files (x86)/Arm GNU Toolchain arm-none-eabi/13.2 Rel1/bin/../lib/gcc/arm-none-eabi/13.2.1/thumb/v8-m.main+dp/hard\libg_nano.a(libc_a-exit.o)
 .ARM.attributes
                0x00000000       0x36 C:/Program Files (x86)/Arm GNU Toolchain arm-none-eabi/13.2 Rel1/bin/../lib/gcc/arm-none-eabi/13.2.1/thumb/v8-m.main+dp/hard\libg_nano.a(libc_a-exit.o)
 .text          0x00000000        0x0 C:/Program Files (x86)/Arm GNU Toolchain arm-none-eabi/13.2 Rel1/bin/../lib/gcc/arm-none-eabi/13.2.1/thumb/v8-m.main+dp/hard\libg_nano.a(libc_a-malloc.o)
 .data          0x00000000        0x0 C:/Program Files (x86)/Arm GNU Toolchain arm-none-eabi/13.2 Rel1/bin/../lib/gcc/arm-none-eabi/13.2.1/thumb/v8-m.main+dp/hard\libg_nano.a(libc_a-malloc.o)
 .bss           0x00000000        0x0 C:/Program Files (x86)/Arm GNU Toolchain arm-none-eabi/13.2 Rel1/bin/../lib/gcc/arm-none-eabi/13.2.1/thumb/v8-m.main+dp/hard\libg_nano.a(libc_a-malloc.o)
 .text          0x00000000        0x0 C:/Program Files (x86)/Arm GNU Toolchain arm-none-eabi/13.2 Rel1/bin/../lib/gcc/arm-none-eabi/13.2.1/thumb/v8-m.main+dp/hard\libg_nano.a(libc_a-mallocr.o)
 .data          0x00000000        0x0 C:/Program Files (x86)/Arm GNU Toolchain arm-none-eabi/13.2 Rel1/bin/../lib/gcc/arm-none-eabi/13.2.1/thumb/v8-m.main+dp/hard\libg_nano.a(libc_a-mallocr.o)
 .bss           0x00000000        0x0 C:/Program Files (x86)/Arm GNU Toolchain arm-none-eabi/13.2 Rel1/bin/../lib/gcc/arm-none-eabi/13.2.1/thumb/v8-m.main+dp/hard\libg_nano.a(libc_a-mallocr.o)
 .text          0x00000000        0x0 C:/Program Files (x86)/Arm GNU Toolchain arm-none-eabi/13.2 Rel1/bin/../lib/gcc/arm-none-eabi/13.2.1/thumb/v8-m.main+dp/hard\libg_nano.a(libc_a-mlock.o)
 .data          0x00000000        0x0 C:/Program Files (x86)/Arm GNU Toolchain arm-none-eabi/13.2 Rel1/bin/../lib/gcc/arm-none-eabi/13.2.1/thumb/v8-m.main+dp/hard\libg_nano.a(libc_a-mlock.o)
 .bss           0x00000000        0x0 C:/Program Files (x86)/Arm GNU Toolchain arm-none-eabi/13.2 Rel1/bin/../lib/gcc/arm-none-eabi/13.2.1/thumb/v8-m.main+dp/hard\libg_nano.a(libc_a-mlock.o)
 .text          0x00000000        0x0 C:/Program Files (x86)/Arm GNU Toolchain arm-none-eabi/13.2 Rel1/bin/../lib/gcc/arm-none-eabi/13.2.1/thumb/v8-m.main+dp/hard\libg_nano.a(libc_a-findfp.o)
 .data          0x00000000        0x0 C:/Program Files (x86)/Arm GNU Toolchain arm-none-eabi/13.2 Rel1/bin/../lib/gcc/arm-none-eabi/13.2.1/thumb/v8-m.main+dp/hard\libg_nano.a(libc_a-findfp.o)
 .bss           0x00000000        0x0 C:/Program Files (x86)/Arm GNU Toolchain arm-none-eabi/13.2 Rel1/bin/../lib/gcc/arm-none-eabi/13.2.1/thumb/v8-m.main+dp/hard\libg_nano.a(libc_a-findfp.o)
 .text.std      0x00000000       0x6c C:/Program Files (x86)/Arm GNU Toolchain arm-none-eabi/13.2 Rel1/bin/../lib/gcc/arm-none-eabi/13.2.1/thumb/v8-m.main+dp/hard\libg_nano.a(libc_a-findfp.o)
 .text.stdio_exit_handler
                0x00000000       0x18 C:/Program Files (x86)/Arm GNU Toolchain arm-none-eabi/13.2 Rel1/bin/../lib/gcc/arm-none-eabi/13.2.1/thumb/v8-m.main+dp/hard\libg_nano.a(libc_a-findfp.o)
 .text.cleanup_stdio
                0x00000000       0x40 C:/Program Files (x86)/Arm GNU Toolchain arm-none-eabi/13.2 Rel1/bin/../lib/gcc/arm-none-eabi/13.2.1/thumb/v8-m.main+dp/hard\libg_nano.a(libc_a-findfp.o)
 .text.__fp_lock
                0x00000000       0x18 C:/Program Files (x86)/Arm GNU Toolchain arm-none-eabi/13.2 Rel1/bin/../lib/gcc/arm-none-eabi/13.2.1/thumb/v8-m.main+dp/hard\libg_nano.a(libc_a-findfp.o)
 .text.__fp_unlock
                0x00000000       0x18 C:/Program Files (x86)/Arm GNU Toolchain arm-none-eabi/13.2 Rel1/bin/../lib/gcc/arm-none-eabi/13.2.1/thumb/v8-m.main+dp/hard\libg_nano.a(libc_a-findfp.o)
 .text.global_stdio_init.part.0
                0x00000000       0x3c C:/Program Files (x86)/Arm GNU Toolchain arm-none-eabi/13.2 Rel1/bin/../lib/gcc/arm-none-eabi/13.2.1/thumb/v8-m.main+dp/hard\libg_nano.a(libc_a-findfp.o)
 .text.__sfp_lock_acquire
                0x00000000        0xc C:/Program Files (x86)/Arm GNU Toolchain arm-none-eabi/13.2 Rel1/bin/../lib/gcc/arm-none-eabi/13.2.1/thumb/v8-m.main+dp/hard\libg_nano.a(libc_a-findfp.o)
 .text.__sfp_lock_release
                0x00000000        0xc C:/Program Files (x86)/Arm GNU Toolchain arm-none-eabi/13.2 Rel1/bin/../lib/gcc/arm-none-eabi/13.2.1/thumb/v8-m.main+dp/hard\libg_nano.a(libc_a-findfp.o)
 .text.__sfp    0x00000000       0xa4 C:/Program Files (x86)/Arm GNU Toolchain arm-none-eabi/13.2 Rel1/bin/../lib/gcc/arm-none-eabi/13.2.1/thumb/v8-m.main+dp/hard\libg_nano.a(libc_a-findfp.o)
 .text.__sinit  0x00000000       0x30 C:/Program Files (x86)/Arm GNU Toolchain arm-none-eabi/13.2 Rel1/bin/../lib/gcc/arm-none-eabi/13.2.1/thumb/v8-m.main+dp/hard\libg_nano.a(libc_a-findfp.o)
 .text.__fp_lock_all
                0x00000000       0x1c C:/Program Files (x86)/Arm GNU Toolchain arm-none-eabi/13.2 Rel1/bin/../lib/gcc/arm-none-eabi/13.2.1/thumb/v8-m.main+dp/hard\libg_nano.a(libc_a-findfp.o)
 .text.__fp_unlock_all
                0x00000000       0x1c C:/Program Files (x86)/Arm GNU Toolchain arm-none-eabi/13.2 Rel1/bin/../lib/gcc/arm-none-eabi/13.2.1/thumb/v8-m.main+dp/hard\libg_nano.a(libc_a-findfp.o)
 .data.__sglue  0x00000000        0xc C:/Program Files (x86)/Arm GNU Toolchain arm-none-eabi/13.2 Rel1/bin/../lib/gcc/arm-none-eabi/13.2.1/thumb/v8-m.main+dp/hard\libg_nano.a(libc_a-findfp.o)
 .bss.__stdio_exit_handler
                0x00000000        0x4 C:/Program Files (x86)/Arm GNU Toolchain arm-none-eabi/13.2 Rel1/bin/../lib/gcc/arm-none-eabi/13.2.1/thumb/v8-m.main+dp/hard\libg_nano.a(libc_a-findfp.o)
 .text          0x00000000        0x0 C:/Program Files (x86)/Arm GNU Toolchain arm-none-eabi/13.2 Rel1/bin/../lib/gcc/arm-none-eabi/13.2.1/thumb/v8-m.main+dp/hard\libg_nano.a(libc_a-fwalk.o)
 .data          0x00000000        0x0 C:/Program Files (x86)/Arm GNU Toolchain arm-none-eabi/13.2 Rel1/bin/../lib/gcc/arm-none-eabi/13.2.1/thumb/v8-m.main+dp/hard\libg_nano.a(libc_a-fwalk.o)
 .bss           0x00000000        0x0 C:/Program Files (x86)/Arm GNU Toolchain arm-none-eabi/13.2 Rel1/bin/../lib/gcc/arm-none-eabi/13.2.1/thumb/v8-m.main+dp/hard\libg_nano.a(libc_a-fwalk.o)
 .text._fwalk_sglue
                0x00000000       0x3c C:/Program Files (x86)/Arm GNU Toolchain arm-none-eabi/13.2 Rel1/bin/../lib/gcc/arm-none-eabi/13.2.1/thumb/v8-m.main+dp/hard\libg_nano.a(libc_a-fwalk.o)
 .debug_frame   0x00000000       0x34 C:/Program Files (x86)/Arm GNU Toolchain arm-none-eabi/13.2 Rel1/bin/../lib/gcc/arm-none-eabi/13.2.1/thumb/v8-m.main+dp/hard\libg_nano.a(libc_a-fwalk.o)
 .ARM.attributes
                0x00000000       0x36 C:/Program Files (x86)/Arm GNU Toolchain arm-none-eabi/13.2 Rel1/bin/../lib/gcc/arm-none-eabi/13.2.1/thumb/v8-m.main+dp/hard\libg_nano.a(libc_a-fwalk.o)
 .text          0x00000000        0x0 C:/Program Files (x86)/Arm GNU Toolchain arm-none-eabi/13.2 Rel1/bin/../lib/gcc/arm-none-eabi/13.2.1/thumb/v8-m.main+dp/hard\libg_nano.a(libc_a-stdio.o)
 .data          0x00000000        0x0 C:/Program Files (x86)/Arm GNU Toolchain arm-none-eabi/13.2 Rel1/bin/../lib/gcc/arm-none-eabi/13.2.1/thumb/v8-m.main+dp/hard\libg_nano.a(libc_a-stdio.o)
 .bss           0x00000000        0x0 C:/Program Files (x86)/Arm GNU Toolchain arm-none-eabi/13.2 Rel1/bin/../lib/gcc/arm-none-eabi/13.2.1/thumb/v8-m.main+dp/hard\libg_nano.a(libc_a-stdio.o)
 .text.__sread  0x00000000       0x22 C:/Program Files (x86)/Arm GNU Toolchain arm-none-eabi/13.2 Rel1/bin/../lib/gcc/arm-none-eabi/13.2.1/thumb/v8-m.main+dp/hard\libg_nano.a(libc_a-stdio.o)
 .text.__seofread
                0x00000000        0x4 C:/Program Files (x86)/Arm GNU Toolchain arm-none-eabi/13.2 Rel1/bin/../lib/gcc/arm-none-eabi/13.2.1/thumb/v8-m.main+dp/hard\libg_nano.a(libc_a-stdio.o)
 .text.__swrite
                0x00000000       0x38 C:/Program Files (x86)/Arm GNU Toolchain arm-none-eabi/13.2 Rel1/bin/../lib/gcc/arm-none-eabi/13.2.1/thumb/v8-m.main+dp/hard\libg_nano.a(libc_a-stdio.o)
 .text.__sseek  0x00000000       0x24 C:/Program Files (x86)/Arm GNU Toolchain arm-none-eabi/13.2 Rel1/bin/../lib/gcc/arm-none-eabi/13.2.1/thumb/v8-m.main+dp/hard\libg_nano.a(libc_a-stdio.o)
 .text.__sclose
                0x00000000        0x8 C:/Program Files (x86)/Arm GNU Toolchain arm-none-eabi/13.2 Rel1/bin/../lib/gcc/arm-none-eabi/13.2.1/thumb/v8-m.main+dp/hard\libg_nano.a(libc_a-stdio.o)
 .debug_frame   0x00000000       0x88 C:/Program Files (x86)/Arm GNU Toolchain arm-none-eabi/13.2 Rel1/bin/../lib/gcc/arm-none-eabi/13.2.1/thumb/v8-m.main+dp/hard\libg_nano.a(libc_a-stdio.o)
 .ARM.attributes
                0x00000000       0x36 C:/Program Files (x86)/Arm GNU Toolchain arm-none-eabi/13.2 Rel1/bin/../lib/gcc/arm-none-eabi/13.2.1/thumb/v8-m.main+dp/hard\libg_nano.a(libc_a-stdio.o)
 .text          0x00000000        0x0 C:/Program Files (x86)/Arm GNU Toolchain arm-none-eabi/13.2 Rel1/bin/../lib/gcc/arm-none-eabi/13.2.1/thumb/v8-m.main+dp/hard\libg_nano.a(libc_a-memset.o)
 .data          0x00000000        0x0 C:/Program Files (x86)/Arm GNU Toolchain arm-none-eabi/13.2 Rel1/bin/../lib/gcc/arm-none-eabi/13.2.1/thumb/v8-m.main+dp/hard\libg_nano.a(libc_a-memset.o)
 .bss           0x00000000        0x0 C:/Program Files (x86)/Arm GNU Toolchain arm-none-eabi/13.2 Rel1/bin/../lib/gcc/arm-none-eabi/13.2.1/thumb/v8-m.main+dp/hard\libg_nano.a(libc_a-memset.o)
 .text          0x00000000        0x0 C:/Program Files (x86)/Arm GNU Toolchain arm-none-eabi/13.2 Rel1/bin/../lib/gcc/arm-none-eabi/13.2.1/thumb/v8-m.main+dp/hard\libg_nano.a(libc_a-closer.o)
 .data          0x00000000        0x0 C:/Program Files (x86)/Arm GNU Toolchain arm-none-eabi/13.2 Rel1/bin/../lib/gcc/arm-none-eabi/13.2.1/thumb/v8-m.main+dp/hard\libg_nano.a(libc_a-closer.o)
 .bss           0x00000000        0x0 C:/Program Files (x86)/Arm GNU Toolchain arm-none-eabi/13.2 Rel1/bin/../lib/gcc/arm-none-eabi/13.2.1/thumb/v8-m.main+dp/hard\libg_nano.a(libc_a-closer.o)
 .text._close_r
                0x00000000       0x20 C:/Program Files (x86)/Arm GNU Toolchain arm-none-eabi/13.2 Rel1/bin/../lib/gcc/arm-none-eabi/13.2.1/thumb/v8-m.main+dp/hard\libg_nano.a(libc_a-closer.o)
 .debug_frame   0x00000000       0x2c C:/Program Files (x86)/Arm GNU Toolchain arm-none-eabi/13.2 Rel1/bin/../lib/gcc/arm-none-eabi/13.2.1/thumb/v8-m.main+dp/hard\libg_nano.a(libc_a-closer.o)
 .ARM.attributes
                0x00000000       0x36 C:/Program Files (x86)/Arm GNU Toolchain arm-none-eabi/13.2 Rel1/bin/../lib/gcc/arm-none-eabi/13.2.1/thumb/v8-m.main+dp/hard\libg_nano.a(libc_a-closer.o)
 .text          0x00000000        0x0 C:/Program Files (x86)/Arm GNU Toolchain arm-none-eabi/13.2 Rel1/bin/../lib/gcc/arm-none-eabi/13.2.1/thumb/v8-m.main+dp/hard\libg_nano.a(libc_a-reent.o)
 .data          0x00000000        0x0 C:/Program Files (x86)/Arm GNU Toolchain arm-none-eabi/13.2 Rel1/bin/../lib/gcc/arm-none-eabi/13.2.1/thumb/v8-m.main+dp/hard\libg_nano.a(libc_a-reent.o)
 .bss           0x00000000        0x0 C:/Program Files (x86)/Arm GNU Toolchain arm-none-eabi/13.2 Rel1/bin/../lib/gcc/arm-none-eabi/13.2.1/thumb/v8-m.main+dp/hard\libg_nano.a(libc_a-reent.o)
 .text._reclaim_reent
                0x00000000       0xac C:/Program Files (x86)/Arm GNU Toolchain arm-none-eabi/13.2 Rel1/bin/../lib/gcc/arm-none-eabi/13.2.1/thumb/v8-m.main+dp/hard\libg_nano.a(libc_a-reent.o)
 .text          0x00000000        0x0 C:/Program Files (x86)/Arm GNU Toolchain arm-none-eabi/13.2 Rel1/bin/../lib/gcc/arm-none-eabi/13.2.1/thumb/v8-m.main+dp/hard\libg_nano.a(libc_a-impure.o)
 .data          0x00000000        0x0 C:/Program Files (x86)/Arm GNU Toolchain arm-none-eabi/13.2 Rel1/bin/../lib/gcc/arm-none-eabi/13.2.1/thumb/v8-m.main+dp/hard\libg_nano.a(libc_a-impure.o)
 .bss           0x00000000        0x0 C:/Program Files (x86)/Arm GNU Toolchain arm-none-eabi/13.2 Rel1/bin/../lib/gcc/arm-none-eabi/13.2.1/thumb/v8-m.main+dp/hard\libg_nano.a(libc_a-impure.o)
 .text          0x00000000        0x0 C:/Program Files (x86)/Arm GNU Toolchain arm-none-eabi/13.2 Rel1/bin/../lib/gcc/arm-none-eabi/13.2.1/thumb/v8-m.main+dp/hard\libg_nano.a(libc_a-lseekr.o)
 .data          0x00000000        0x0 C:/Program Files (x86)/Arm GNU Toolchain arm-none-eabi/13.2 Rel1/bin/../lib/gcc/arm-none-eabi/13.2.1/thumb/v8-m.main+dp/hard\libg_nano.a(libc_a-lseekr.o)
 .bss           0x00000000        0x0 C:/Program Files (x86)/Arm GNU Toolchain arm-none-eabi/13.2 Rel1/bin/../lib/gcc/arm-none-eabi/13.2.1/thumb/v8-m.main+dp/hard\libg_nano.a(libc_a-lseekr.o)
 .text._lseek_r
                0x00000000       0x24 C:/Program Files (x86)/Arm GNU Toolchain arm-none-eabi/13.2 Rel1/bin/../lib/gcc/arm-none-eabi/13.2.1/thumb/v8-m.main+dp/hard\libg_nano.a(libc_a-lseekr.o)
 .debug_frame   0x00000000       0x2c C:/Program Files (x86)/Arm GNU Toolchain arm-none-eabi/13.2 Rel1/bin/../lib/gcc/arm-none-eabi/13.2.1/thumb/v8-m.main+dp/hard\libg_nano.a(libc_a-lseekr.o)
 .ARM.attributes
                0x00000000       0x36 C:/Program Files (x86)/Arm GNU Toolchain arm-none-eabi/13.2 Rel1/bin/../lib/gcc/arm-none-eabi/13.2.1/thumb/v8-m.main+dp/hard\libg_nano.a(libc_a-lseekr.o)
 .text          0x00000000        0x0 C:/Program Files (x86)/Arm GNU Toolchain arm-none-eabi/13.2 Rel1/bin/../lib/gcc/arm-none-eabi/13.2.1/thumb/v8-m.main+dp/hard\libg_nano.a(libc_a-readr.o)
 .data          0x00000000        0x0 C:/Program Files (x86)/Arm GNU Toolchain arm-none-eabi/13.2 Rel1/bin/../lib/gcc/arm-none-eabi/13.2.1/thumb/v8-m.main+dp/hard\libg_nano.a(libc_a-readr.o)
 .bss           0x00000000        0x0 C:/Program Files (x86)/Arm GNU Toolchain arm-none-eabi/13.2 Rel1/bin/../lib/gcc/arm-none-eabi/13.2.1/thumb/v8-m.main+dp/hard\libg_nano.a(libc_a-readr.o)
 .text._read_r  0x00000000       0x24 C:/Program Files (x86)/Arm GNU Toolchain arm-none-eabi/13.2 Rel1/bin/../lib/gcc/arm-none-eabi/13.2.1/thumb/v8-m.main+dp/hard\libg_nano.a(libc_a-readr.o)
 .debug_frame   0x00000000       0x2c C:/Program Files (x86)/Arm GNU Toolchain arm-none-eabi/13.2 Rel1/bin/../lib/gcc/arm-none-eabi/13.2.1/thumb/v8-m.main+dp/hard\libg_nano.a(libc_a-readr.o)
 .ARM.attributes
                0x00000000       0x36 C:/Program Files (x86)/Arm GNU Toolchain arm-none-eabi/13.2 Rel1/bin/../lib/gcc/arm-none-eabi/13.2.1/thumb/v8-m.main+dp/hard\libg_nano.a(libc_a-readr.o)
 .text          0x00000000        0x0 C:/Program Files (x86)/Arm GNU Toolchain arm-none-eabi/13.2 Rel1/bin/../lib/gcc/arm-none-eabi/13.2.1/thumb/v8-m.main+dp/hard\libg_nano.a(libc_a-sbrkr.o)
 .data          0x00000000        0x0 C:/Program Files (x86)/Arm GNU Toolchain arm-none-eabi/13.2 Rel1/bin/../lib/gcc/arm-none-eabi/13.2.1/thumb/v8-m.main+dp/hard\libg_nano.a(libc_a-sbrkr.o)
 .bss           0x00000000        0x0 C:/Program Files (x86)/Arm GNU Toolchain arm-none-eabi/13.2 Rel1/bin/../lib/gcc/arm-none-eabi/13.2.1/thumb/v8-m.main+dp/hard\libg_nano.a(libc_a-sbrkr.o)
 .text          0x00000000        0x0 C:/Program Files (x86)/Arm GNU Toolchain arm-none-eabi/13.2 Rel1/bin/../lib/gcc/arm-none-eabi/13.2.1/thumb/v8-m.main+dp/hard\libg_nano.a(libc_a-writer.o)
 .data          0x00000000        0x0 C:/Program Files (x86)/Arm GNU Toolchain arm-none-eabi/13.2 Rel1/bin/../lib/gcc/arm-none-eabi/13.2.1/thumb/v8-m.main+dp/hard\libg_nano.a(libc_a-writer.o)
 .bss           0x00000000        0x0 C:/Program Files (x86)/Arm GNU Toolchain arm-none-eabi/13.2 Rel1/bin/../lib/gcc/arm-none-eabi/13.2.1/thumb/v8-m.main+dp/hard\libg_nano.a(libc_a-writer.o)
 .text._write_r
                0x00000000       0x24 C:/Program Files (x86)/Arm GNU Toolchain arm-none-eabi/13.2 Rel1/bin/../lib/gcc/arm-none-eabi/13.2.1/thumb/v8-m.main+dp/hard\libg_nano.a(libc_a-writer.o)
 .debug_frame   0x00000000       0x2c C:/Program Files (x86)/Arm GNU Toolchain arm-none-eabi/13.2 Rel1/bin/../lib/gcc/arm-none-eabi/13.2.1/thumb/v8-m.main+dp/hard\libg_nano.a(libc_a-writer.o)
 .ARM.attributes
                0x00000000       0x36 C:/Program Files (x86)/Arm GNU Toolchain arm-none-eabi/13.2 Rel1/bin/../lib/gcc/arm-none-eabi/13.2.1/thumb/v8-m.main+dp/hard\libg_nano.a(libc_a-writer.o)
 .text          0x00000000        0x0 C:/Program Files (x86)/Arm GNU Toolchain arm-none-eabi/13.2 Rel1/bin/../lib/gcc/arm-none-eabi/13.2.1/thumb/v8-m.main+dp/hard\libg_nano.a(libc_a-errno.o)
 .data          0x00000000        0x0 C:/Program Files (x86)/Arm GNU Toolchain arm-none-eabi/13.2 Rel1/bin/../lib/gcc/arm-none-eabi/13.2.1/thumb/v8-m.main+dp/hard\libg_nano.a(libc_a-errno.o)
 .bss           0x00000000        0x0 C:/Program Files (x86)/Arm GNU Toolchain arm-none-eabi/13.2 Rel1/bin/../lib/gcc/arm-none-eabi/13.2.1/thumb/v8-m.main+dp/hard\libg_nano.a(libc_a-errno.o)
 .text          0x00000000        0x0 C:/Program Files (x86)/Arm GNU Toolchain arm-none-eabi/13.2 Rel1/bin/../lib/gcc/arm-none-eabi/13.2.1/thumb/v8-m.main+dp/hard\libg_nano.a(libc_a-init.o)
 .data          0x00000000        0x0 C:/Program Files (x86)/Arm GNU Toolchain arm-none-eabi/13.2 Rel1/bin/../lib/gcc/arm-none-eabi/13.2.1/thumb/v8-m.main+dp/hard\libg_nano.a(libc_a-init.o)
 .bss           0x00000000        0x0 C:/Program Files (x86)/Arm GNU Toolchain arm-none-eabi/13.2 Rel1/bin/../lib/gcc/arm-none-eabi/13.2.1/thumb/v8-m.main+dp/hard\libg_nano.a(libc_a-init.o)
 .text.__libc_init_array
                0x00000000       0x48 C:/Program Files (x86)/Arm GNU Toolchain arm-none-eabi/13.2 Rel1/bin/../lib/gcc/arm-none-eabi/13.2.1/thumb/v8-m.main+dp/hard\libg_nano.a(libc_a-init.o)
 .debug_frame   0x00000000       0x2c C:/Program Files (x86)/Arm GNU Toolchain arm-none-eabi/13.2 Rel1/bin/../lib/gcc/arm-none-eabi/13.2.1/thumb/v8-m.main+dp/hard\libg_nano.a(libc_a-init.o)
 .ARM.attributes
                0x00000000       0x36 C:/Program Files (x86)/Arm GNU Toolchain arm-none-eabi/13.2 Rel1/bin/../lib/gcc/arm-none-eabi/13.2.1/thumb/v8-m.main+dp/hard\libg_nano.a(libc_a-init.o)
 .text          0x00000000        0x0 C:/Program Files (x86)/Arm GNU Toolchain arm-none-eabi/13.2 Rel1/bin/../lib/gcc/arm-none-eabi/13.2.1/thumb/v8-m.main+dp/hard\libg_nano.a(libc_a-lock.o)
 .data          0x00000000        0x0 C:/Program Files (x86)/Arm GNU Toolchain arm-none-eabi/13.2 Rel1/bin/../lib/gcc/arm-none-eabi/13.2.1/thumb/v8-m.main+dp/hard\libg_nano.a(libc_a-lock.o)
 .bss           0x00000000        0x0 C:/Program Files (x86)/Arm GNU Toolchain arm-none-eabi/13.2 Rel1/bin/../lib/gcc/arm-none-eabi/13.2.1/thumb/v8-m.main+dp/hard\libg_nano.a(libc_a-lock.o)
 .text.__retarget_lock_init
                0x00000000        0x2 C:/Program Files (x86)/Arm GNU Toolchain arm-none-eabi/13.2 Rel1/bin/../lib/gcc/arm-none-eabi/13.2.1/thumb/v8-m.main+dp/hard\libg_nano.a(libc_a-lock.o)
 .text.__retarget_lock_init_recursive
                0x00000000        0x2 C:/Program Files (x86)/Arm GNU Toolchain arm-none-eabi/13.2 Rel1/bin/../lib/gcc/arm-none-eabi/13.2.1/thumb/v8-m.main+dp/hard\libg_nano.a(libc_a-lock.o)
 .text.__retarget_lock_close
                0x00000000        0x2 C:/Program Files (x86)/Arm GNU Toolchain arm-none-eabi/13.2 Rel1/bin/../lib/gcc/arm-none-eabi/13.2.1/thumb/v8-m.main+dp/hard\libg_nano.a(libc_a-lock.o)
 .text.__retarget_lock_close_recursive
                0x00000000        0x2 C:/Program Files (x86)/Arm GNU Toolchain arm-none-eabi/13.2 Rel1/bin/../lib/gcc/arm-none-eabi/13.2.1/thumb/v8-m.main+dp/hard\libg_nano.a(libc_a-lock.o)
 .text.__retarget_lock_acquire
                0x00000000        0x2 C:/Program Files (x86)/Arm GNU Toolchain arm-none-eabi/13.2 Rel1/bin/../lib/gcc/arm-none-eabi/13.2.1/thumb/v8-m.main+dp/hard\libg_nano.a(libc_a-lock.o)
 .text.__retarget_lock_try_acquire
                0x00000000        0x4 C:/Program Files (x86)/Arm GNU Toolchain arm-none-eabi/13.2 Rel1/bin/../lib/gcc/arm-none-eabi/13.2.1/thumb/v8-m.main+dp/hard\libg_nano.a(libc_a-lock.o)
 .text.__retarget_lock_try_acquire_recursive
                0x00000000        0x4 C:/Program Files (x86)/Arm GNU Toolchain arm-none-eabi/13.2 Rel1/bin/../lib/gcc/arm-none-eabi/13.2.1/thumb/v8-m.main+dp/hard\libg_nano.a(libc_a-lock.o)
 .text.__retarget_lock_release
                0x00000000        0x2 C:/Program Files (x86)/Arm GNU Toolchain arm-none-eabi/13.2 Rel1/bin/../lib/gcc/arm-none-eabi/13.2.1/thumb/v8-m.main+dp/hard\libg_nano.a(libc_a-lock.o)
 .bss.__lock___arc4random_mutex
                0x00000000        0x1 C:/Program Files (x86)/Arm GNU Toolchain arm-none-eabi/13.2 Rel1/bin/../lib/gcc/arm-none-eabi/13.2.1/thumb/v8-m.main+dp/hard\libg_nano.a(libc_a-lock.o)
 .bss.__lock___dd_hash_mutex
                0x00000000        0x1 C:/Program Files (x86)/Arm GNU Toolchain arm-none-eabi/13.2 Rel1/bin/../lib/gcc/arm-none-eabi/13.2.1/thumb/v8-m.main+dp/hard\libg_nano.a(libc_a-lock.o)
 .bss.__lock___tz_mutex
                0x00000000        0x1 C:/Program Files (x86)/Arm GNU Toolchain arm-none-eabi/13.2 Rel1/bin/../lib/gcc/arm-none-eabi/13.2.1/thumb/v8-m.main+dp/hard\libg_nano.a(libc_a-lock.o)
 .bss.__lock___env_recursive_mutex
                0x00000000        0x1 C:/Program Files (x86)/Arm GNU Toolchain arm-none-eabi/13.2 Rel1/bin/../lib/gcc/arm-none-eabi/13.2.1/thumb/v8-m.main+dp/hard\libg_nano.a(libc_a-lock.o)
 .bss.__lock___at_quick_exit_mutex
                0x00000000        0x1 C:/Program Files (x86)/Arm GNU Toolchain arm-none-eabi/13.2 Rel1/bin/../lib/gcc/arm-none-eabi/13.2.1/thumb/v8-m.main+dp/hard\libg_nano.a(libc_a-lock.o)
 .bss.__lock___atexit_recursive_mutex
                0x00000000        0x1 C:/Program Files (x86)/Arm GNU Toolchain arm-none-eabi/13.2 Rel1/bin/../lib/gcc/arm-none-eabi/13.2.1/thumb/v8-m.main+dp/hard\libg_nano.a(libc_a-lock.o)
 .bss.__lock___sfp_recursive_mutex
                0x00000000        0x1 C:/Program Files (x86)/Arm GNU Toolchain arm-none-eabi/13.2 Rel1/bin/../lib/gcc/arm-none-eabi/13.2.1/thumb/v8-m.main+dp/hard\libg_nano.a(libc_a-lock.o)
 .text          0x00000000        0x0 C:/Program Files (x86)/Arm GNU Toolchain arm-none-eabi/13.2 Rel1/bin/../lib/gcc/arm-none-eabi/13.2.1/thumb/v8-m.main+dp/hard\libg_nano.a(libc_a-memcpy-stub.o)
 .data          0x00000000        0x0 C:/Program Files (x86)/Arm GNU Toolchain arm-none-eabi/13.2 Rel1/bin/../lib/gcc/arm-none-eabi/13.2.1/thumb/v8-m.main+dp/hard\libg_nano.a(libc_a-memcpy-stub.o)
 .bss           0x00000000        0x0 C:/Program Files (x86)/Arm GNU Toolchain arm-none-eabi/13.2 Rel1/bin/../lib/gcc/arm-none-eabi/13.2.1/thumb/v8-m.main+dp/hard\libg_nano.a(libc_a-memcpy-stub.o)
 .text          0x00000000       0x10 C:/Program Files (x86)/Arm GNU Toolchain arm-none-eabi/13.2 Rel1/bin/../lib/gcc/arm-none-eabi/13.2.1/thumb/v8-m.main+dp/hard\libg_nano.a(libc_a-strlen.o)
 .data          0x00000000        0x0 C:/Program Files (x86)/Arm GNU Toolchain arm-none-eabi/13.2 Rel1/bin/../lib/gcc/arm-none-eabi/13.2.1/thumb/v8-m.main+dp/hard\libg_nano.a(libc_a-strlen.o)
 .bss           0x00000000        0x0 C:/Program Files (x86)/Arm GNU Toolchain arm-none-eabi/13.2 Rel1/bin/../lib/gcc/arm-none-eabi/13.2.1/thumb/v8-m.main+dp/hard\libg_nano.a(libc_a-strlen.o)
 .ARM.extab     0x00000000        0x0 C:/Program Files (x86)/Arm GNU Toolchain arm-none-eabi/13.2 Rel1/bin/../lib/gcc/arm-none-eabi/13.2.1/thumb/v8-m.main+dp/hard\libg_nano.a(libc_a-strlen.o)
 .ARM.exidx     0x00000000        0x8 C:/Program Files (x86)/Arm GNU Toolchain arm-none-eabi/13.2 Rel1/bin/../lib/gcc/arm-none-eabi/13.2.1/thumb/v8-m.main+dp/hard\libg_nano.a(libc_a-strlen.o)
 .text          0x00000000        0x0 C:/Program Files (x86)/Arm GNU Toolchain arm-none-eabi/13.2 Rel1/bin/../lib/gcc/arm-none-eabi/13.2.1/thumb/v8-m.main+dp/hard\libg_nano.a(libc_a-freer.o)
 .data          0x00000000        0x0 C:/Program Files (x86)/Arm GNU Toolchain arm-none-eabi/13.2 Rel1/bin/../lib/gcc/arm-none-eabi/13.2.1/thumb/v8-m.main+dp/hard\libg_nano.a(libc_a-freer.o)
 .bss           0x00000000        0x0 C:/Program Files (x86)/Arm GNU Toolchain arm-none-eabi/13.2 Rel1/bin/../lib/gcc/arm-none-eabi/13.2.1/thumb/v8-m.main+dp/hard\libg_nano.a(libc_a-freer.o)
 .text          0x00000000        0x0 C:/Program Files (x86)/Arm GNU Toolchain arm-none-eabi/13.2 Rel1/bin/../lib/gcc/arm-none-eabi/13.2.1/thumb/v8-m.main+dp/hard\libg_nano.a(libc_a-fflush.o)
 .data          0x00000000        0x0 C:/Program Files (x86)/Arm GNU Toolchain arm-none-eabi/13.2 Rel1/bin/../lib/gcc/arm-none-eabi/13.2.1/thumb/v8-m.main+dp/hard\libg_nano.a(libc_a-fflush.o)
 .bss           0x00000000        0x0 C:/Program Files (x86)/Arm GNU Toolchain arm-none-eabi/13.2 Rel1/bin/../lib/gcc/arm-none-eabi/13.2.1/thumb/v8-m.main+dp/hard\libg_nano.a(libc_a-fflush.o)
 .text.__sflush_r
                0x00000000      0x108 C:/Program Files (x86)/Arm GNU Toolchain arm-none-eabi/13.2 Rel1/bin/../lib/gcc/arm-none-eabi/13.2.1/thumb/v8-m.main+dp/hard\libg_nano.a(libc_a-fflush.o)
 .text._fflush_r
                0x00000000       0x50 C:/Program Files (x86)/Arm GNU Toolchain arm-none-eabi/13.2 Rel1/bin/../lib/gcc/arm-none-eabi/13.2.1/thumb/v8-m.main+dp/hard\libg_nano.a(libc_a-fflush.o)
 .text.fflush   0x00000000       0x28 C:/Program Files (x86)/Arm GNU Toolchain arm-none-eabi/13.2 Rel1/bin/../lib/gcc/arm-none-eabi/13.2.1/thumb/v8-m.main+dp/hard\libg_nano.a(libc_a-fflush.o)
 .debug_frame   0x00000000       0x5c C:/Program Files (x86)/Arm GNU Toolchain arm-none-eabi/13.2 Rel1/bin/../lib/gcc/arm-none-eabi/13.2.1/thumb/v8-m.main+dp/hard\libg_nano.a(libc_a-fflush.o)
 .ARM.attributes
                0x00000000       0x36 C:/Program Files (x86)/Arm GNU Toolchain arm-none-eabi/13.2 Rel1/bin/../lib/gcc/arm-none-eabi/13.2.1/thumb/v8-m.main+dp/hard\libg_nano.a(libc_a-fflush.o)
 .text          0x00000000        0x0 C:/Program Files (x86)/Arm GNU Toolchain arm-none-eabi/13.2 Rel1/bin/../lib/gcc/arm-none-eabi/13.2.1/thumb/v8-m.main+dp/hard\libnosys.a(close.o)
 .data          0x00000000        0x0 C:/Program Files (x86)/Arm GNU Toolchain arm-none-eabi/13.2 Rel1/bin/../lib/gcc/arm-none-eabi/13.2.1/thumb/v8-m.main+dp/hard\libnosys.a(close.o)
 .bss           0x00000000        0x0 C:/Program Files (x86)/Arm GNU Toolchain arm-none-eabi/13.2 Rel1/bin/../lib/gcc/arm-none-eabi/13.2.1/thumb/v8-m.main+dp/hard\libnosys.a(close.o)
 .text._close   0x00000000       0x10 C:/Program Files (x86)/Arm GNU Toolchain arm-none-eabi/13.2 Rel1/bin/../lib/gcc/arm-none-eabi/13.2.1/thumb/v8-m.main+dp/hard\libnosys.a(close.o)
 .gnu.warning._close
                0x00000000        0x0 C:/Program Files (x86)/Arm GNU Toolchain arm-none-eabi/13.2 Rel1/bin/../lib/gcc/arm-none-eabi/13.2.1/thumb/v8-m.main+dp/hard\libnosys.a(close.o)
 .debug_frame   0x00000000       0x20 C:/Program Files (x86)/Arm GNU Toolchain arm-none-eabi/13.2 Rel1/bin/../lib/gcc/arm-none-eabi/13.2.1/thumb/v8-m.main+dp/hard\libnosys.a(close.o)
 .ARM.attributes
                0x00000000       0x36 C:/Program Files (x86)/Arm GNU Toolchain arm-none-eabi/13.2 Rel1/bin/../lib/gcc/arm-none-eabi/13.2.1/thumb/v8-m.main+dp/hard\libnosys.a(close.o)
 .text          0x00000000        0x0 C:/Program Files (x86)/Arm GNU Toolchain arm-none-eabi/13.2 Rel1/bin/../lib/gcc/arm-none-eabi/13.2.1/thumb/v8-m.main+dp/hard\libnosys.a(lseek.o)
 .data          0x00000000        0x0 C:/Program Files (x86)/Arm GNU Toolchain arm-none-eabi/13.2 Rel1/bin/../lib/gcc/arm-none-eabi/13.2.1/thumb/v8-m.main+dp/hard\libnosys.a(lseek.o)
 .bss           0x00000000        0x0 C:/Program Files (x86)/Arm GNU Toolchain arm-none-eabi/13.2 Rel1/bin/../lib/gcc/arm-none-eabi/13.2.1/thumb/v8-m.main+dp/hard\libnosys.a(lseek.o)
 .text._lseek   0x00000000       0x10 C:/Program Files (x86)/Arm GNU Toolchain arm-none-eabi/13.2 Rel1/bin/../lib/gcc/arm-none-eabi/13.2.1/thumb/v8-m.main+dp/hard\libnosys.a(lseek.o)
 .gnu.warning._lseek
                0x00000000        0x0 C:/Program Files (x86)/Arm GNU Toolchain arm-none-eabi/13.2 Rel1/bin/../lib/gcc/arm-none-eabi/13.2.1/thumb/v8-m.main+dp/hard\libnosys.a(lseek.o)
 .debug_frame   0x00000000       0x20 C:/Program Files (x86)/Arm GNU Toolchain arm-none-eabi/13.2 Rel1/bin/../lib/gcc/arm-none-eabi/13.2.1/thumb/v8-m.main+dp/hard\libnosys.a(lseek.o)
 .ARM.attributes
                0x00000000       0x36 C:/Program Files (x86)/Arm GNU Toolchain arm-none-eabi/13.2 Rel1/bin/../lib/gcc/arm-none-eabi/13.2.1/thumb/v8-m.main+dp/hard\libnosys.a(lseek.o)
 .text          0x00000000        0x0 C:/Program Files (x86)/Arm GNU Toolchain arm-none-eabi/13.2 Rel1/bin/../lib/gcc/arm-none-eabi/13.2.1/thumb/v8-m.main+dp/hard\libnosys.a(read.o)
 .data          0x00000000        0x0 C:/Program Files (x86)/Arm GNU Toolchain arm-none-eabi/13.2 Rel1/bin/../lib/gcc/arm-none-eabi/13.2.1/thumb/v8-m.main+dp/hard\libnosys.a(read.o)
 .bss           0x00000000        0x0 C:/Program Files (x86)/Arm GNU Toolchain arm-none-eabi/13.2 Rel1/bin/../lib/gcc/arm-none-eabi/13.2.1/thumb/v8-m.main+dp/hard\libnosys.a(read.o)
 .text._read    0x00000000       0x10 C:/Program Files (x86)/Arm GNU Toolchain arm-none-eabi/13.2 Rel1/bin/../lib/gcc/arm-none-eabi/13.2.1/thumb/v8-m.main+dp/hard\libnosys.a(read.o)
 .gnu.warning._read
                0x00000000        0x0 C:/Program Files (x86)/Arm GNU Toolchain arm-none-eabi/13.2 Rel1/bin/../lib/gcc/arm-none-eabi/13.2.1/thumb/v8-m.main+dp/hard\libnosys.a(read.o)
 .debug_frame   0x00000000       0x20 C:/Program Files (x86)/Arm GNU Toolchain arm-none-eabi/13.2 Rel1/bin/../lib/gcc/arm-none-eabi/13.2.1/thumb/v8-m.main+dp/hard\libnosys.a(read.o)
 .ARM.attributes
                0x00000000       0x36 C:/Program Files (x86)/Arm GNU Toolchain arm-none-eabi/13.2 Rel1/bin/../lib/gcc/arm-none-eabi/13.2.1/thumb/v8-m.main+dp/hard\libnosys.a(read.o)
 .text          0x00000000        0x0 C:/Program Files (x86)/Arm GNU Toolchain arm-none-eabi/13.2 Rel1/bin/../lib/gcc/arm-none-eabi/13.2.1/thumb/v8-m.main+dp/hard\libnosys.a(write.o)
 .data          0x00000000        0x0 C:/Program Files (x86)/Arm GNU Toolchain arm-none-eabi/13.2 Rel1/bin/../lib/gcc/arm-none-eabi/13.2.1/thumb/v8-m.main+dp/hard\libnosys.a(write.o)
 .bss           0x00000000        0x0 C:/Program Files (x86)/Arm GNU Toolchain arm-none-eabi/13.2 Rel1/bin/../lib/gcc/arm-none-eabi/13.2.1/thumb/v8-m.main+dp/hard\libnosys.a(write.o)
 .text._write   0x00000000       0x10 C:/Program Files (x86)/Arm GNU Toolchain arm-none-eabi/13.2 Rel1/bin/../lib/gcc/arm-none-eabi/13.2.1/thumb/v8-m.main+dp/hard\libnosys.a(write.o)
 .gnu.warning._write
                0x00000000        0x0 C:/Program Files (x86)/Arm GNU Toolchain arm-none-eabi/13.2 Rel1/bin/../lib/gcc/arm-none-eabi/13.2.1/thumb/v8-m.main+dp/hard\libnosys.a(write.o)
 .debug_frame   0x00000000       0x20 C:/Program Files (x86)/Arm GNU Toolchain arm-none-eabi/13.2 Rel1/bin/../lib/gcc/arm-none-eabi/13.2.1/thumb/v8-m.main+dp/hard\libnosys.a(write.o)
 .ARM.attributes
                0x00000000       0x36 C:/Program Files (x86)/Arm GNU Toolchain arm-none-eabi/13.2 Rel1/bin/../lib/gcc/arm-none-eabi/13.2.1/thumb/v8-m.main+dp/hard\libnosys.a(write.o)
 .text          0x00000000        0x0 C:/Program Files (x86)/Arm GNU Toolchain arm-none-eabi/13.2 Rel1/bin/../lib/gcc/arm-none-eabi/13.2.1/thumb/v8-m.main+dp/hard\libnosys.a(_exit.o)
 .data          0x00000000        0x0 C:/Program Files (x86)/Arm GNU Toolchain arm-none-eabi/13.2 Rel1/bin/../lib/gcc/arm-none-eabi/13.2.1/thumb/v8-m.main+dp/hard\libnosys.a(_exit.o)
 .bss           0x00000000        0x0 C:/Program Files (x86)/Arm GNU Toolchain arm-none-eabi/13.2 Rel1/bin/../lib/gcc/arm-none-eabi/13.2.1/thumb/v8-m.main+dp/hard\libnosys.a(_exit.o)
 .text._exit    0x00000000        0x4 C:/Program Files (x86)/Arm GNU Toolchain arm-none-eabi/13.2 Rel1/bin/../lib/gcc/arm-none-eabi/13.2.1/thumb/v8-m.main+dp/hard\libnosys.a(_exit.o)
 .debug_frame   0x00000000       0x20 C:/Program Files (x86)/Arm GNU Toolchain arm-none-eabi/13.2 Rel1/bin/../lib/gcc/arm-none-eabi/13.2.1/thumb/v8-m.main+dp/hard\libnosys.a(_exit.o)
 .ARM.attributes
                0x00000000       0x36 C:/Program Files (x86)/Arm GNU Toolchain arm-none-eabi/13.2 Rel1/bin/../lib/gcc/arm-none-eabi/13.2.1/thumb/v8-m.main+dp/hard\libnosys.a(_exit.o)
 .text          0x00000000        0x0 C:/Program Files (x86)/Arm GNU Toolchain arm-none-eabi/13.2 Rel1/bin/../lib/gcc/arm-none-eabi/13.2.1/thumb/v8-m.main+dp/hard/crtend.o
 .data          0x00000000        0x0 C:/Program Files (x86)/Arm GNU Toolchain arm-none-eabi/13.2 Rel1/bin/../lib/gcc/arm-none-eabi/13.2.1/thumb/v8-m.main+dp/hard/crtend.o
 .bss           0x00000000        0x0 C:/Program Files (x86)/Arm GNU Toolchain arm-none-eabi/13.2 Rel1/bin/../lib/gcc/arm-none-eabi/13.2.1/thumb/v8-m.main+dp/hard/crtend.o
 .rodata.all_implied_fbits
                0x00000000       0x24 C:/Program Files (x86)/Arm GNU Toolchain arm-none-eabi/13.2 Rel1/bin/../lib/gcc/arm-none-eabi/13.2.1/thumb/v8-m.main+dp/hard/crtend.o
 .text          0x00000000        0x0 C:/Program Files (x86)/Arm GNU Toolchain arm-none-eabi/13.2 Rel1/bin/../lib/gcc/arm-none-eabi/13.2.1/thumb/v8-m.main+dp/hard/crtn.o
 .data          0x00000000        0x0 C:/Program Files (x86)/Arm GNU Toolchain arm-none-eabi/13.2 Rel1/bin/../lib/gcc/arm-none-eabi/13.2.1/thumb/v8-m.main+dp/hard/crtn.o
 .bss           0x00000000        0x0 C:/Program Files (x86)/Arm GNU Toolchain arm-none-eabi/13.2 Rel1/bin/../lib/gcc/arm-none-eabi/13.2.1/thumb/v8-m.main+dp/hard/crtn.o

Memory Configuration

Name             Origin             Length             Attributes
ITCM             0x00000000         0x00010000         xr
DTCM             0x20000000         0x00010000         xrw
FLASH            0x02000000         0x001f8000         xr
RAM              0x22000000         0x000e0000         xrw
DATA_FLASH       0x27000000         0x00003000         xr
QSPI_FLASH       0x60000000         0x00000000         xr
OSPI_DEVICE_0    0x80000000         0x10000000         xr
OSPI_DEVICE_1    0x90000000         0x10000000         xr
OSPI_DEVICE_0_RAM 0x80000000         0x10000000         xrw
OSPI_DEVICE_1_RAM 0x90000000         0x10000000         xrw
SDRAM            0x68000000         0x08000000         xrw
OPTION_SETTING   0x0300a100         0x00000100         r
OPTION_SETTING_OFS 0x0300a100         0x00000018         r
OPTION_SETTING_SAS 0x0300a134         0x000000cc         r
OPTION_SETTING_S 0x0300a200         0x00000100         r
OPTION_SETTING_DATA_FLASH_S 0x27030080         0x00000800         r
ID_CODE          0x00000000         0x00000000         xr
*default*        0x00000000         0xffffffff

Linker script and memory map

LOAD C:/Program Files (x86)/Arm GNU Toolchain arm-none-eabi/13.2 Rel1/bin/../lib/gcc/arm-none-eabi/13.2.1/thumb/v8-m.main+dp/hard/crti.o
LOAD C:/Program Files (x86)/Arm GNU Toolchain arm-none-eabi/13.2 Rel1/bin/../lib/gcc/arm-none-eabi/13.2.1/thumb/v8-m.main+dp/hard/crtbegin.o
LOAD C:/Program Files (x86)/Arm GNU Toolchain arm-none-eabi/13.2 Rel1/bin/../lib/gcc/arm-none-eabi/13.2.1/thumb/v8-m.main+dp/hard/crt0.o
START GROUP
LOAD ./src/testbench/testbench.o
LOAD ./src/testbench/testbench_timers.o
LOAD ./src/draw_core/draw_core.o
LOAD ./src/SEGGER_RTT/SEGGER_RTT.o
LOAD ./src/SEGGER_RTT/SEGGER_RTT_printf.o
LOAD ./src/SCI_RTT/SCI_RTT.o
LOAD ./src/MIPI/mipi.o
LOAD ./src/GLCD/glcd.o
LOAD ./src/DRW_ep.o
LOAD ./src/hal_entry.o
LOAD ./ra_gen/common_data.o
LOAD ./ra_gen/hal_data.o
LOAD ./ra_gen/main.o
LOAD ./ra_gen/pin_data.o
LOAD ./ra_gen/vector_data.o
LOAD ./ra/tes/dave2d/src/dave_64bitoperation.o
LOAD ./ra/tes/dave2d/src/dave_base.o
LOAD ./ra/tes/dave2d/src/dave_blit.o
LOAD ./ra/tes/dave2d/src/dave_box.o
LOAD ./ra/tes/dave2d/src/dave_circle.o
LOAD ./ra/tes/dave2d/src/dave_context.o
LOAD ./ra/tes/dave2d/src/dave_curve.o
LOAD ./ra/tes/dave2d/src/dave_dlist.o
LOAD ./ra/tes/dave2d/src/dave_driver.o
LOAD ./ra/tes/dave2d/src/dave_edge.o
LOAD ./ra/tes/dave2d/src/dave_errorcodes.o
LOAD ./ra/tes/dave2d/src/dave_gradient.o
LOAD ./ra/tes/dave2d/src/dave_hardware.o
LOAD ./ra/tes/dave2d/src/dave_line.o
LOAD ./ra/tes/dave2d/src/dave_math.o
LOAD ./ra/tes/dave2d/src/dave_memory.o
LOAD ./ra/tes/dave2d/src/dave_pattern.o
LOAD ./ra/tes/dave2d/src/dave_perfcount.o
LOAD ./ra/tes/dave2d/src/dave_polyline.o
LOAD ./ra/tes/dave2d/src/dave_quad.o
LOAD ./ra/tes/dave2d/src/dave_rbuffer.o
LOAD ./ra/tes/dave2d/src/dave_render.o
LOAD ./ra/tes/dave2d/src/dave_texture.o
LOAD ./ra/tes/dave2d/src/dave_triangle.o
LOAD ./ra/tes/dave2d/src/dave_utility.o
LOAD ./ra/tes/dave2d/src/dave_viewport.o
LOAD ./ra/tes/dave2d/src/dave_wedge.o
LOAD ./ra/fsp/src/r_sci_b_uart/r_sci_b_uart.o
LOAD ./ra/fsp/src/r_mipi_phy/r_mipi_phy.o
LOAD ./ra/fsp/src/r_mipi_dsi/r_mipi_dsi.o
LOAD ./ra/fsp/src/r_ioport/r_ioport.o
LOAD ./ra/fsp/src/r_gpt/r_gpt.o
LOAD ./ra/fsp/src/r_glcdc/r_glcdc.o
LOAD ./ra/fsp/src/r_drw/r_drw_base.o
LOAD ./ra/fsp/src/r_drw/r_drw_irq.o
LOAD ./ra/fsp/src/r_drw/r_drw_memory.o
LOAD ./ra/fsp/src/bsp/mcu/all/bsp_clocks.o
LOAD ./ra/fsp/src/bsp/mcu/all/bsp_common.o
LOAD ./ra/fsp/src/bsp/mcu/all/bsp_delay.o
LOAD ./ra/fsp/src/bsp/mcu/all/bsp_group_irq.o
LOAD ./ra/fsp/src/bsp/mcu/all/bsp_guard.o
LOAD ./ra/fsp/src/bsp/mcu/all/bsp_io.o
LOAD ./ra/fsp/src/bsp/mcu/all/bsp_irq.o
LOAD ./ra/fsp/src/bsp/mcu/all/bsp_macl.o
LOAD ./ra/fsp/src/bsp/mcu/all/bsp_register_protection.o
LOAD ./ra/fsp/src/bsp/mcu/all/bsp_rom_registers.o
LOAD ./ra/fsp/src/bsp/mcu/all/bsp_sbrk.o
LOAD ./ra/fsp/src/bsp/mcu/all/bsp_security.o
LOAD ./ra/fsp/src/bsp/cmsis/Device/RENESAS/Source/startup.o
LOAD ./ra/fsp/src/bsp/cmsis/Device/RENESAS/Source/system.o
LOAD ./ra/board/ra8d1_ek/board_init.o
LOAD ./ra/board/ra8d1_ek/board_leds.o
LOAD ./ra/board/ra8d1_ek/board_sdram.o
END GROUP
START GROUP
LOAD C:/Program Files (x86)/Arm GNU Toolchain arm-none-eabi/13.2 Rel1/bin/../lib/gcc/arm-none-eabi/13.2.1/thumb/v8-m.main+dp/hard\libgcc.a
LOAD C:/Program Files (x86)/Arm GNU Toolchain arm-none-eabi/13.2 Rel1/bin/../lib/gcc/arm-none-eabi/13.2.1/thumb/v8-m.main+dp/hard\libg_nano.a
LOAD C:/Program Files (x86)/Arm GNU Toolchain arm-none-eabi/13.2 Rel1/bin/../lib/gcc/arm-none-eabi/13.2.1/thumb/v8-m.main+dp/hard\libc_nano.a
END GROUP
START GROUP
LOAD C:/Program Files (x86)/Arm GNU Toolchain arm-none-eabi/13.2 Rel1/bin/../lib/gcc/arm-none-eabi/13.2.1/thumb/v8-m.main+dp/hard\libgcc.a
LOAD C:/Program Files (x86)/Arm GNU Toolchain arm-none-eabi/13.2 Rel1/bin/../lib/gcc/arm-none-eabi/13.2.1/thumb/v8-m.main+dp/hard\libc_nano.a
LOAD C:/Program Files (x86)/Arm GNU Toolchain arm-none-eabi/13.2 Rel1/bin/../lib/gcc/arm-none-eabi/13.2.1/thumb/v8-m.main+dp/hard\libnosys.a
END GROUP
START GROUP
LOAD C:/Program Files (x86)/Arm GNU Toolchain arm-none-eabi/13.2 Rel1/bin/../lib/gcc/arm-none-eabi/13.2.1/thumb/v8-m.main+dp/hard\libgcc.a
LOAD C:/Program Files (x86)/Arm GNU Toolchain arm-none-eabi/13.2 Rel1/bin/../lib/gcc/arm-none-eabi/13.2.1/thumb/v8-m.main+dp/hard\libc_nano.a
LOAD C:/Program Files (x86)/Arm GNU Toolchain arm-none-eabi/13.2 Rel1/bin/../lib/gcc/arm-none-eabi/13.2.1/thumb/v8-m.main+dp/hard\libnosys.a
END GROUP
LOAD C:/Program Files (x86)/Arm GNU Toolchain arm-none-eabi/13.2 Rel1/bin/../lib/gcc/arm-none-eabi/13.2.1/thumb/v8-m.main+dp/hard/crtend.o
LOAD C:/Program Files (x86)/Arm GNU Toolchain arm-none-eabi/13.2 Rel1/bin/../lib/gcc/arm-none-eabi/13.2.1/thumb/v8-m.main+dp/hard/crtn.o
                0x22000000                        RAM_START = 0x22000000
                0x000e0000                        RAM_LENGTH = 0xe0000
                0x02000000                        FLASH_START = 0x2000000
                0x001f8000                        FLASH_LENGTH = 0x1f8000
                0x27000000                        DATA_FLASH_START = 0x27000000
                0x00003000                        DATA_FLASH_LENGTH = 0x3000
                0x0300a100                        OPTION_SETTING_START = 0x300a100
                0x00000100                        OPTION_SETTING_LENGTH = 0x100
                0x0300a200                        OPTION_SETTING_S_START = 0x300a200
                0x00000100                        OPTION_SETTING_S_LENGTH = 0x100
                0x27030080                        OPTION_SETTING_DATA_FLASH_S_START = 0x27030080
                0x00000800                        OPTION_SETTING_DATA_FLASH_S_LENGTH = 0x800
                0x00000000                        ID_CODE_START = 0x0
                0x00000000                        ID_CODE_LENGTH = 0x0
                0x68000000                        SDRAM_START = 0x68000000
                0x08000000                        SDRAM_LENGTH = 0x8000000
                0x60000000                        QSPI_FLASH_START = 0x60000000
                0x00000000                        QSPI_FLASH_LENGTH = 0x0
                0x80000000                        OSPI_DEVICE_0_START = 0x80000000
                0x10000000                        OSPI_DEVICE_0_LENGTH = 0x10000000
                0x90000000                        OSPI_DEVICE_1_START = 0x90000000
                0x10000000                        OSPI_DEVICE_1_LENGTH = 0x10000000
                0x00000000                        ITCM_START = 0x0
                0x00010000                        ITCM_LENGTH = 0x10000
                0x20000000                        DTCM_START = 0x20000000
                0x00010000                        DTCM_LENGTH = 0x10000
                0x10000000                        NS_OFFSET_START = 0x10000000
                0x00000000                        NS_OFFSET_LENGTH = 0x0
                0x00000000                        QSPI_FLASH_PRV_LENGTH = DEFINED (QSPI_FLASH_SIZE)?ABSOLUTE (QSPI_FLASH_SIZE):ABSOLUTE (QSPI_FLASH_LENGTH)
                0x10000000                        OSPI_DEVICE_0_PRV_LENGTH = DEFINED (OSPI_DEVICE_0_SIZE)?ABSOLUTE (OSPI_DEVICE_0_SIZE):ABSOLUTE (OSPI_DEVICE_0_LENGTH)
                0x10000000                        OSPI_DEVICE_1_PRV_LENGTH = DEFINED (OSPI_DEVICE_1_SIZE)?ABSOLUTE (OSPI_DEVICE_1_SIZE):ABSOLUTE (OSPI_DEVICE_1_LENGTH)
                0x00000000                        __RESERVE_NS_RAM = ((! (DEFINED (PROJECT_NONSECURE)) && DEFINED (RAM_NS_BUFFER_LENGTH)) && (OPTION_SETTING_S_LENGTH != 0x0))
                0x00000000                        ITCM_START = DEFINED (ITCM_START)?ITCM_START:0x0
                0x00010000                        ITCM_LENGTH = DEFINED (ITCM_LENGTH)?ITCM_LENGTH:0x0
                0x20000000                        DTCM_START = DEFINED (DTCM_START)?DTCM_START:0x0
                0x00010000                        DTCM_LENGTH = DEFINED (DTCM_LENGTH)?DTCM_LENGTH:0x0
                0x00000000                        RAM_NS_BUFFER_BLOCK_LENGTH = DEFINED (RAM_NS_BUFFER_LENGTH)?ALIGN (RAM_NS_BUFFER_LENGTH, 0x2000):0x0
                0x00000000                        RAM_NS_BUFFER_LENGTH = DEFINED (RAM_NS_BUFFER_LENGTH)?RAM_NS_BUFFER_LENGTH:0x0
                0x220e0000                        RAM_NS_BUFFER_START = ((RAM_START + RAM_LENGTH) - RAM_NS_BUFFER_LENGTH)
                0x220e0000                        RAM_NS_BUFFER_BLOCK_START = ((RAM_START + RAM_LENGTH) - RAM_NS_BUFFER_BLOCK_LENGTH)
                0x0300a180                        OPTION_SETTING_START_NS = DEFINED (PROJECT_NONSECURE)?OPTION_SETTING_START:(OPTION_SETTING_START + 0x80)
                0x27030080                        OPTION_SETTING_DATA_FLASH_S_START = DEFINED (OPTION_SETTING_DATA_FLASH_S_START)?OPTION_SETTING_DATA_FLASH_S_START:0x0
                0x00000800                        OPTION_SETTING_DATA_FLASH_S_LENGTH = DEFINED (OPTION_SETTING_DATA_FLASH_S_LENGTH)?OPTION_SETTING_DATA_FLASH_S_LENGTH:0x0
                0x00000001                        __bl_FSP_BOOTABLE_IMAGE = 0x1
                0x00000001                        __bln_FSP_BOOTABLE_IMAGE = 0x1
                0x00000001                        PROJECT_SECURE_OR_FLAT = (((! (DEFINED (PROJECT_NONSECURE)) || DEFINED (PROJECT_SECURE)) && OPTION_SETTING_LENGTH) && ! (DEFINED (FSP_BOOTABLE_IMAGE)))
                0x00000000                        USE_OPTION_SETTING_NS = (DEFINED (PROJECT_NONSECURE) && ! (DEFINED (FSP_BOOTABLE_IMAGE)))
                0x00000001                        USE_OPTION_SETTING_DATA_FLASH = (PROJECT_SECURE_OR_FLAT && (OPTION_SETTING_DATA_FLASH_S_LENGTH != 0x0))
                0x00000000                        __bl_FLASH_IMAGE_START = ! (DEFINED (FLASH_BOOTLOADER_LENGTH))?0x0:(FLASH_APPLICATION_IMAGE_NUMBER == 0x1)?((FLASH_START + FLASH_BOOTLOADER_LENGTH) + FLASH_BOOTLOADER_HEADER_LENGTH):DEFINED (BOOTLOADER_SECONDARY_USE_QSPI)?(((FLASH_START + FLASH_BOOTLOADER_LENGTH) + FLASH_BOOTLOADER_SCRATCH_LENGTH) + FLASH_BOOTLOADER_HEADER_LENGTH):((((FLASH_START + FLASH_BOOTLOADER_LENGTH) + FLASH_BOOTLOADER_SCRATCH_LENGTH) + FLASH_APPLICATION_S_LENGTH) + FLASH_BOOTLOADER_HEADER_LENGTH)
                0x00000000                        __bl_FLASH_IMAGE_LENGTH = ! (DEFINED (FLASH_BOOTLOADER_LENGTH))?0x0:(FLASH_APPLICATION_S_LENGTH - FLASH_BOOTLOADER_HEADER_LENGTH)
                0x00000000                        __bl_FLASH_IMAGE_END = (__bl_FLASH_IMAGE_START + __bl_FLASH_IMAGE_LENGTH)
                0x00000000                        __bl_XIP_SECONDARY_FLASH_IMAGE_START = ! (DEFINED (FLASH_BOOTLOADER_LENGTH))?0x0:((FLASH_BOOTLOADER_LENGTH + FLASH_APPLICATION_S_LENGTH) + FLASH_BOOTLOADER_HEADER_LENGTH)
                0x00000000                        __bl_XIP_SECONDARY_FLASH_IMAGE_END = (__bl_XIP_SECONDARY_FLASH_IMAGE_START + __bl_FLASH_IMAGE_LENGTH)
                0x00000000                        __bl_FLASH_NS_START = ! (DEFINED (FLASH_BOOTLOADER_LENGTH))?0x0:(FLASH_APPLICATION_NS_LENGTH == 0x0)?__bl_FLASH_IMAGE_END:((__bl_FLASH_IMAGE_START - FLASH_BOOTLOADER_HEADER_LENGTH) + FLASH_APPLICATION_S_LENGTH)
                0x00000000                        __bl_FLASH_NSC_START = ! (DEFINED (FLASH_BOOTLOADER_LENGTH))?0x0:(FLASH_APPLICATION_NS_LENGTH == 0x0)?__bl_FLASH_IMAGE_END:(__bl_FLASH_IMAGE_END - FLASH_APPLICATION_NSC_LENGTH)
                0x00000000                        __bl_RAM_NS_START = ! (DEFINED (FLASH_BOOTLOADER_LENGTH))?0x0:(FLASH_APPLICATION_NS_LENGTH == 0x0)?(RAM_START + RAM_LENGTH):((RAM_START + RAM_LENGTH) - RAM_APPLICATION_NS_LENGTH)
                0x00000000                        __bl_RAM_NSC_START = ! (DEFINED (FLASH_BOOTLOADER_LENGTH))?0x0:(FLASH_APPLICATION_NS_LENGTH == 0x0)?(RAM_START + RAM_LENGTH):(__bl_RAM_NS_START - RAM_APPLICATION_NSC_LENGTH)
                0x00000000                        __bl_FLASH_NS_IMAGE_START = ! (DEFINED (FLASH_BOOTLOADER_LENGTH))?0x0:(FLASH_APPLICATION_NS_LENGTH == 0x0)?__bl_FLASH_IMAGE_END:(__bl_FLASH_NS_START + FLASH_BOOTLOADER_HEADER_LENGTH_2)
                0x10000000                        __bln_FLASH_IMAGE_START = (__bl_FLASH_NS_IMAGE_START | ! (DEFINED (NS_OFFSET_START))?0x0:NS_OFFSET_START)
                0x00000000                        __bln_FLASH_IMAGE_LENGTH = ! (DEFINED (FLASH_BOOTLOADER_LENGTH))?0x0:(FLASH_APPLICATION_NS_LENGTH == 0x0)?__bl_FLASH_IMAGE_END:(FLASH_APPLICATION_NS_LENGTH - FLASH_BOOTLOADER_HEADER_LENGTH_2)
                0x00000000                        XIP_SECONDARY_SLOT_IMAGE = DEFINED (XIP_SECONDARY_SLOT_IMAGE)?XIP_SECONDARY_SLOT_IMAGE:0x0
                0x02000000                        FLASH_ORIGIN = ! (DEFINED (FLASH_IMAGE_START))?FLASH_START:(XIP_SECONDARY_SLOT_IMAGE == 0x1)?XIP_SECONDARY_FLASH_IMAGE_START:FLASH_IMAGE_START
                0x001f8000                        LIMITED_FLASH_LENGTH = DEFINED (FLASH_IMAGE_LENGTH)?FLASH_IMAGE_LENGTH:DEFINED (FLASH_BOOTLOADER_LENGTH)?FLASH_BOOTLOADER_LENGTH:FLASH_LENGTH
                0x00000034                        OPTION_SETTING_SAS_SIZE = 0x34
                0x000000cc                        OPTION_SETTING_SAS_LENGTH = ! (DEFINED (OPTION_SETTING_LENGTH))?0x0:(OPTION_SETTING_LENGTH == 0x0)?0x0:(OPTION_SETTING_LENGTH - OPTION_SETTING_SAS_SIZE)
START GROUP
LOAD C:/Program Files (x86)/Arm GNU Toolchain arm-none-eabi/13.2 Rel1/bin/../lib/gcc/arm-none-eabi/13.2.1/thumb/v8-m.main+dp/hard\libgcc.a
LOAD C:/Program Files (x86)/Arm GNU Toolchain arm-none-eabi/13.2 Rel1/bin/../lib/gcc/arm-none-eabi/13.2.1/thumb/v8-m.main+dp/hard\libc.a
LOAD C:/Program Files (x86)/Arm GNU Toolchain arm-none-eabi/13.2 Rel1/bin/../lib/gcc/arm-none-eabi/13.2.1/thumb/v8-m.main+dp/hard\libm.a
END GROUP

.text           0x02000000    0x149c8
                0x02000000                        __tz_FLASH_S = ABSOLUTE (FLASH_START)
                0x02000000                        __ROM_Start = .
 *(.fixed_vectors*)
 .fixed_vectors
                0x02000000       0x40 ./ra/fsp/src/bsp/cmsis/Device/RENESAS/Source/startup.o
                0x02000000                __Vectors
 *(.application_vectors*)
 .application_vectors
                0x02000040      0x180 ./ra_gen/vector_data.o
                0x02000040                g_vector_table
                0x020001c0                        __Vectors_End = .
 *(.flash_gap*)
                0x020001c0                        . = (OPTION_SETTING_LENGTH > 0x0)?.:(__ROM_Start + 0x400)
 *(.rom_registers*)
 *(.mcuboot_sce9_key*)
 *(.text*)
 .text.deregister_tm_clones
                0x020001c0       0x1c C:/Program Files (x86)/Arm GNU Toolchain arm-none-eabi/13.2 Rel1/bin/../lib/gcc/arm-none-eabi/13.2.1/thumb/v8-m.main+dp/hard/crtbegin.o
 .text.register_tm_clones
                0x020001dc       0x28 C:/Program Files (x86)/Arm GNU Toolchain arm-none-eabi/13.2 Rel1/bin/../lib/gcc/arm-none-eabi/13.2.1/thumb/v8-m.main+dp/hard/crtbegin.o
 .text.__do_global_dtors_aux
                0x02000204       0x28 C:/Program Files (x86)/Arm GNU Toolchain arm-none-eabi/13.2 Rel1/bin/../lib/gcc/arm-none-eabi/13.2.1/thumb/v8-m.main+dp/hard/crtbegin.o
 .text.frame_dummy
                0x0200022c       0x24 C:/Program Files (x86)/Arm GNU Toolchain arm-none-eabi/13.2 Rel1/bin/../lib/gcc/arm-none-eabi/13.2.1/thumb/v8-m.main+dp/hard/crtbegin.o
 .text.testbench_Start
                0x02000250      0x198 ./src/testbench/testbench.o
 .text.testbench_Open
                0x020003e8      0x168 ./src/testbench/testbench.o
 .text.testbench_timer0_cb
                0x02000550       0x50 ./src/testbench/testbench_timers.o
                0x02000550                testbench_timer0_cb
 .text.draw_core_init
                0x020005a0       0xa8 ./src/draw_core/draw_core.o
                0x020005a0                draw_core_init
 .text.draw_core_set
                0x02000648      0x114 ./src/draw_core/draw_core.o
                0x02000648                draw_core_set
 .text.draw_core_draw
                0x0200075c      0x248 ./src/draw_core/draw_core.o
                0x0200075c                draw_core_draw
 .text.draw_core_animate
                0x020009a4      0x47c ./src/draw_core/draw_core.o
                0x020009a4                draw_core_animate
 .text.error_handler
                0x02000e20       0x48 ./src/draw_core/draw_core.o
 .text._StoreChar
                0x02000e68       0x7c ./src/SEGGER_RTT/SEGGER_RTT_printf.o
 .text._PrintUnsigned
                0x02000ee4      0x15c ./src/SEGGER_RTT/SEGGER_RTT_printf.o
 .text._PrintInt
                0x02001040      0x14e ./src/SEGGER_RTT/SEGGER_RTT_printf.o
 *fill*         0x0200118e        0x2 ff
 .text.SEGGER_RTT_vprintf
                0x02001190      0x3b4 ./src/SEGGER_RTT/SEGGER_RTT_printf.o
                0x02001190                SEGGER_RTT_vprintf
 .text.SEGGER_RTT_printf
                0x02001544       0x30 ./src/SEGGER_RTT/SEGGER_RTT_printf.o
                0x02001544                SEGGER_RTT_printf
 .text.SCI_RTT_Open
                0x02001574       0x8c ./src/SCI_RTT/SCI_RTT.o
                0x02001574                SCI_RTT_Open
 .text.SEGGER_RTT_Write
                0x02001600       0x58 ./src/SCI_RTT/SCI_RTT.o
                0x02001600                SEGGER_RTT_Write
 .text.SCI_RTT_callback
                0x02001658      0x1a8 ./src/SCI_RTT/SCI_RTT.o
                0x02001658                SCI_RTT_callback
 .text.mipi_dsi_push_table
                0x02001800       0xb4 ./src/MIPI/mipi.o
                0x02001800                mipi_dsi_push_table
 .text.mipi_dsi_callback
                0x020018b4       0x38 ./src/MIPI/mipi.o
                0x020018b4                mipi_dsi_callback
 .text.glcd_init
                0x020018ec       0x7c ./src/GLCD/glcd.o
                0x020018ec                glcd_init
 .text.glcd_swap
                0x02001968       0x54 ./src/GLCD/glcd.o
                0x02001968                glcd_swap
 .text.glcdc_callback
                0x020019bc       0x2c ./src/GLCD/glcd.o
                0x020019bc                glcdc_callback
 .text.Gvar_Swap
                0x020019e8       0x34 ./src/DRW_ep.o
                0x020019e8                Gvar_Swap
 .text.Gvar_Open
                0x02001a1c       0x50 ./src/DRW_ep.o
                0x02001a1c                Gvar_Open
 .text.DRW_entry
                0x02001a6c      0x10c ./src/DRW_ep.o
                0x02001a6c                DRW_entry
 .text.hal_entry
                0x02001b78        0xc ./src/hal_entry.o
                0x02001b78                hal_entry
 .text.R_BSP_WarmStart
                0x02001b84       0x2c ./src/hal_entry.o
                0x02001b84                R_BSP_WarmStart
 .text.main     0x02001bb0        0xe ./ra_gen/main.o
                0x02001bb0                main
 .text.d2_add2dlist_intern
                0x02001bbe       0x5a ./ra/tes/dave2d/src/dave_box.o
 .text.d2_renderbox_inline
                0x02001c18      0x444 ./ra/tes/dave2d/src/dave_box.o
                0x02001c18                d2_renderbox_inline
 .text.d2_clearbox_intern
                0x0200205c      0x320 ./ra/tes/dave2d/src/dave_box.o
 .text.d2_renderbox_solid
                0x0200237c       0x44 ./ra/tes/dave2d/src/dave_box.o
                0x0200237c                d2_renderbox_solid
 .text.d2_renderbox_shadow
                0x020023c0       0x5e ./ra/tes/dave2d/src/dave_box.o
                0x020023c0                d2_renderbox_shadow
 .text.d2_renderbox_outline
                0x0200241e      0x1fa ./ra/tes/dave2d/src/dave_box.o
                0x0200241e                d2_renderbox_outline
 .text.d2_renderbox_solidoutline
                0x02002618       0x7c ./ra/tes/dave2d/src/dave_box.o
                0x02002618                d2_renderbox_solidoutline
 .text.d2_renderbox_solidshadow
                0x02002694       0x8a ./ra/tes/dave2d/src/dave_box.o
                0x02002694                d2_renderbox_solidshadow
 .text.d2_clearbox_solid
                0x0200271e       0x22 ./ra/tes/dave2d/src/dave_box.o
                0x0200271e                d2_clearbox_solid
 .text.d2_seterr
                0x02002740       0x22 ./ra/tes/dave2d/src/dave_context.o
 *fill*         0x02002762        0x2 ff
 .text.d2_newcontext
                0x02002764      0x2e4 ./ra/tes/dave2d/src/dave_context.o
                0x02002764                d2_newcontext
 .text.d2_setcolor
                0x02002a48       0x46 ./ra/tes/dave2d/src/dave_context.o
                0x02002a48                d2_setcolor
 .text.d2_setalpha
                0x02002a8e       0x6e ./ra/tes/dave2d/src/dave_context.o
                0x02002a8e                d2_setalpha
 .text.d2_setalphamode
                0x02002afc       0x7c ./ra/tes/dave2d/src/dave_context.o
                0x02002afc                d2_setalphamode
 .text.d2_setblendmode
                0x02002b78      0x10c ./ra/tes/dave2d/src/dave_context.o
                0x02002b78                d2_setblendmode
 .text.d2_setantialiasing
                0x02002c84       0x82 ./ra/tes/dave2d/src/dave_context.o
                0x02002c84                d2_setantialiasing
 .text.d2_setlinecap
                0x02002d06       0x44 ./ra/tes/dave2d/src/dave_context.o
                0x02002d06                d2_setlinecap
 .text.d2_setlinejoin
                0x02002d4a       0x2c ./ra/tes/dave2d/src/dave_context.o
                0x02002d4a                d2_setlinejoin
 .text.d2_calcpatternalpha_intern
                0x02002d76       0x6c ./ra/tes/dave2d/src/dave_context.o
                0x02002d76                d2_calcpatternalpha_intern
 .text.d2_add2dlist_intern
                0x02002de2       0x5a ./ra/tes/dave2d/src/dave_curve.o
 .text.d2_circlesetup_intern
                0x02002e3c      0x67c ./ra/tes/dave2d/src/dave_curve.o
                0x02002e3c                d2_circlesetup_intern
 .text.d2_insertdlistjump_intern
                0x020034b8       0x50 ./ra/tes/dave2d/src/dave_dlist.o
 .text.d2_insertdlistspecial_intern
                0x02003508      0x12c ./ra/tes/dave2d/src/dave_dlist.o
 .text.d2_seterr
                0x02003634       0x22 ./ra/tes/dave2d/src/dave_dlist.o
 .text.d2_alloc_dlistblock_intern
                0x02003656       0xea ./ra/tes/dave2d/src/dave_dlist.o
                0x02003656                d2_alloc_dlistblock_intern
 .text.d2_free_dlistblock_intern
                0x02003740       0x7a ./ra/tes/dave2d/src/dave_dlist.o
                0x02003740                d2_free_dlistblock_intern
 .text.d2_growdlist_intern
                0x020037ba       0x64 ./ra/tes/dave2d/src/dave_dlist.o
                0x020037ba                d2_growdlist_intern
 .text.d2_initdlist_intern
                0x0200381e      0x1ca ./ra/tes/dave2d/src/dave_dlist.o
                0x0200381e                d2_initdlist_intern
 .text.d2_nextdlistblock_intern
                0x020039e8      0x21a ./ra/tes/dave2d/src/dave_dlist.o
                0x020039e8                d2_nextdlistblock_intern
 *fill*         0x02003c02        0x2 ff
 .text.d2_paddlist_intern
                0x02003c04       0xc0 ./ra/tes/dave2d/src/dave_dlist.o
                0x02003c04                d2_paddlist_intern
 .text.d2_resetdlist_intern
                0x02003cc4       0xb2 ./ra/tes/dave2d/src/dave_dlist.o
                0x02003cc4                d2_resetdlist_intern
 .text.d2_preparedlist_read_intern
                0x02003d76      0x16c ./ra/tes/dave2d/src/dave_dlist.o
                0x02003d76                d2_preparedlist_read_intern
 .text.d2_executedlist_intern
                0x02003ee2      0x23a ./ra/tes/dave2d/src/dave_dlist.o
                0x02003ee2                d2_executedlist_intern
 .text.d2_insertwaitpipedlist_intern
                0x0200411c       0x2c ./ra/tes/dave2d/src/dave_dlist.o
                0x0200411c                d2_insertwaitpipedlist_intern
 .text.d2_insertwaitfulldlist_intern
                0x02004148       0x2c ./ra/tes/dave2d/src/dave_dlist.o
                0x02004148                d2_insertwaitfulldlist_intern
 .text.d2_scratch2dlist_intern
                0x02004174      0x330 ./ra/tes/dave2d/src/dave_dlist.o
                0x02004174                d2_scratch2dlist_intern
 .text.d2_copydlist_vidmem_intern
                0x020044a4       0xae ./ra/tes/dave2d/src/dave_dlist.o
                0x020044a4                d2_copydlist_vidmem_intern
 .text.d2_cacheflushdlist_intern
                0x02004552       0x7e ./ra/tes/dave2d/src/dave_dlist.o
                0x02004552                d2_cacheflushdlist_intern
 .text.d2_mapdlist_vidmem_intern
                0x020045d0       0x9a ./ra/tes/dave2d/src/dave_dlist.o
                0x020045d0                d2_mapdlist_vidmem_intern
 .text.d2_clear_dlistlist_intern
                0x0200466a       0x48 ./ra/tes/dave2d/src/dave_dlist.o
                0x0200466a                d2_clear_dlistlist_intern
 .text.d2_add_dlistlist_intern
                0x020046b2       0xaa ./ra/tes/dave2d/src/dave_dlist.o
                0x020046b2                d2_add_dlistlist_intern
 .text.d2_seterr
                0x0200475c       0x22 ./ra/tes/dave2d/src/dave_driver.o
 .text.d2_newbackupcontext_intern
                0x0200477e       0x34 ./ra/tes/dave2d/src/dave_driver.o
 *fill*         0x020047b2        0x2 ff
 .text.d2_opendevice
                0x020047b4      0x1b4 ./ra/tes/dave2d/src/dave_driver.o
                0x020047b4                d2_opendevice
 .text.d2_geterror
                0x02004968       0x38 ./ra/tes/dave2d/src/dave_driver.o
                0x02004968                d2_geterror
 .text.d2_geterrorstring
                0x020049a0       0x20 ./ra/tes/dave2d/src/dave_driver.o
                0x020049a0                d2_geterrorstring
 .text.d2_inithw
                0x020049c0      0x18c ./ra/tes/dave2d/src/dave_driver.o
                0x020049c0                d2_inithw
 .text.d2_level1interface
                0x02004b4c       0x18 ./ra/tes/dave2d/src/dave_driver.o
                0x02004b4c                d2_level1interface
 .text.d2_selectrendermode
                0x02004b64       0x8e ./ra/tes/dave2d/src/dave_driver.o
                0x02004b64                d2_selectrendermode
 .text.d2_layermerge
                0x02004bf2       0x36 ./ra/tes/dave2d/src/dave_driver.o
                0x02004bf2                d2_layermerge
 .text.d2_flushframe
                0x02004c28       0x2a ./ra/tes/dave2d/src/dave_driver.o
                0x02004c28                d2_flushframe
 .text.d2_lineedge_setup3blur_intern
                0x02004c52      0x14a ./ra/tes/dave2d/src/dave_edge.o
                0x02004c52                d2_lineedge_setup3blur_intern
 .text.d2_lineedge_setup3sqrt_intern
                0x02004d9c      0x138 ./ra/tes/dave2d/src/dave_edge.o
                0x02004d9c                d2_lineedge_setup3sqrt_intern
 .text.d2_lineedge_setup3_intern
                0x02004ed4      0x470 ./ra/tes/dave2d/src/dave_edge.o
                0x02004ed4                d2_lineedge_setup3_intern
 .text.d2_triedge_setup_intern
                0x02005344      0x214 ./ra/tes/dave2d/src/dave_edge.o
                0x02005344                d2_triedge_setup_intern
 .text.d2_triedge_setupblur_intern
                0x02005558      0x5b6 ./ra/tes/dave2d/src/dave_edge.o
                0x02005558                d2_triedge_setupblur_intern
 .text.d2_triedge_setupnoaa_intern
                0x02005b0e       0x86 ./ra/tes/dave2d/src/dave_edge.o
                0x02005b0e                d2_triedge_setupnoaa_intern
 .text.d2_triedge_setupsqrt_intern
                0x02005b94       0xb2 ./ra/tes/dave2d/src/dave_edge.o
                0x02005b94                d2_triedge_setupsqrt_intern
 .text.d2_invertlimiter_intern
                0x02005c46       0x34 ./ra/tes/dave2d/src/dave_edge.o
                0x02005c46                d2_invertlimiter_intern
 *fill*         0x02005c7a        0x2 ff
 .text.d2_translateerror
                0x02005c7c       0x2c ./ra/tes/dave2d/src/dave_errorcodes.o
                0x02005c7c                d2_translateerror
 .text.d2_add2dlist_intern
                0x02005ca8       0x5a ./ra/tes/dave2d/src/dave_gradient.o
 .text.d2_initgradient_intern
                0x02005d02       0x3e ./ra/tes/dave2d/src/dave_gradient.o
                0x02005d02                d2_initgradient_intern
 .text.d2_initgradient_lin
                0x02005d40      0x140 ./ra/tes/dave2d/src/dave_gradient.o
 .text.d2_initgradient_quad
                0x02005e80       0x1c ./ra/tes/dave2d/src/dave_gradient.o
 .text.d2_initgradients_intern
                0x02005e9c      0x260 ./ra/tes/dave2d/src/dave_gradient.o
                0x02005e9c                d2_initgradients_intern
 .text.d2hw_acquire
                0x020060fc       0x86 ./ra/tes/dave2d/src/dave_hardware.o
                0x020060fc                d2hw_acquire
 .text.d2hw_set
                0x02006182       0x20 ./ra/tes/dave2d/src/dave_hardware.o
                0x02006182                d2hw_set
 .text.d2hw_wait
                0x020061a2       0x28 ./ra/tes/dave2d/src/dave_hardware.o
                0x020061a2                d2hw_wait
 .text.d2hw_finish
                0x020061ca       0x64 ./ra/tes/dave2d/src/dave_hardware.o
                0x020061ca                d2hw_finish
 .text.d2hw_start
                0x0200622e       0x9c ./ra/tes/dave2d/src/dave_hardware.o
                0x0200622e                d2hw_start
 .text.d2_add2dlist_intern
                0x020062ca       0x5a ./ra/tes/dave2d/src/dave_line.o
 .text.d2_renderline_intern
                0x02006324      0xd0c ./ra/tes/dave2d/src/dave_line.o
                0x02006324                d2_renderline_intern
 .text.d2_renderline2_intern
                0x02007030      0xe0c ./ra/tes/dave2d/src/dave_line.o
                0x02007030                d2_renderline2_intern
 .text.d2_renderlinedot_intern
                0x02007e3c      0x264 ./ra/tes/dave2d/src/dave_line.o
                0x02007e3c                d2_renderlinedot_intern
 .text.d2_renderline_intern_split
                0x020080a0      0x160 ./ra/tes/dave2d/src/dave_line.o
                0x020080a0                d2_renderline_intern_split
 .text.d2_renderline_solid
                0x02008200       0x5e ./ra/tes/dave2d/src/dave_line.o
                0x02008200                d2_renderline_solid
 .text.d2_renderline_outline_I
                0x0200825e       0x5e ./ra/tes/dave2d/src/dave_line.o
                0x0200825e                d2_renderline_outline_I
 .text.d2_renderline_outline
                0x020082bc       0x72 ./ra/tes/dave2d/src/dave_line.o
                0x020082bc                d2_renderline_outline
 .text.d2_renderline_shadow
                0x0200832e       0x8c ./ra/tes/dave2d/src/dave_line.o
                0x0200832e                d2_renderline_shadow
 .text.d2_renderline_solidshadow
                0x020083ba       0xd2 ./ra/tes/dave2d/src/dave_line.o
                0x020083ba                d2_renderline_solidshadow
 .text.d2_renderline_solidoutline
                0x0200848c       0xb8 ./ra/tes/dave2d/src/dave_line.o
                0x0200848c                d2_renderline_solidoutline
 .text.d2_sqrt  0x02008544      0x20e ./ra/tes/dave2d/src/dave_math.o
                0x02008544                d2_sqrt
 .text.d2_getmem_p
                0x02008752       0x18 ./ra/tes/dave2d/src/dave_memory.o
                0x02008752                d2_getmem_p
 .text.d2_freemem_p
                0x0200876a       0x16 ./ra/tes/dave2d/src/dave_memory.o
                0x0200876a                d2_freemem_p
 .text.d2_reallocmem_p
                0x02008780       0xd4 ./ra/tes/dave2d/src/dave_memory.o
                0x02008780                d2_reallocmem_p
 .text.d2_getmem_d
                0x02008854       0x64 ./ra/tes/dave2d/src/dave_memory.o
                0x02008854                d2_getmem_d
 .text.d2_freemem_d
                0x020088b8       0x5e ./ra/tes/dave2d/src/dave_memory.o
                0x020088b8                d2_freemem_d
 .text.d2_add2dlist_intern
                0x02008916       0x5a ./ra/tes/dave2d/src/dave_pattern.o
 .text.d2_setupulimiter_intern
                0x02008970       0xc8 ./ra/tes/dave2d/src/dave_pattern.o
 .text.d2_setupulimiter_invert_intern
                0x02008a38       0xdc ./ra/tes/dave2d/src/dave_pattern.o
 .text.d2_setuppattern
                0x02008b14       0x3a ./ra/tes/dave2d/src/dave_pattern.o
                0x02008b14                d2_setuppattern
 .text.d2_fixlength
                0x02008b4e       0x84 ./ra/tes/dave2d/src/dave_polyline.o
 *fill*         0x02008bd2        0x2 ff
 .text.d2_renderpolyline_intern
                0x02008bd4      0x4f0 ./ra/tes/dave2d/src/dave_polyline.o
                0x02008bd4                d2_renderpolyline_intern
 .text.d2_renderpolyline_solid
                0x020090c4       0x3c ./ra/tes/dave2d/src/dave_polyline.o
                0x020090c4                d2_renderpolyline_solid
 .text.d2_renderpolyline_shadow
                0x02009100       0x50 ./ra/tes/dave2d/src/dave_polyline.o
                0x02009100                d2_renderpolyline_shadow
 .text.d2_renderpolyline_outline
                0x02009150       0x4c ./ra/tes/dave2d/src/dave_polyline.o
                0x02009150                d2_renderpolyline_outline
 .text.d2_renderpolyline_solidshadow
                0x0200919c       0x80 ./ra/tes/dave2d/src/dave_polyline.o
                0x0200919c                d2_renderpolyline_solidshadow
 .text.d2_renderpolyline_solidoutline
                0x0200921c       0x7c ./ra/tes/dave2d/src/dave_polyline.o
                0x0200921c                d2_renderpolyline_solidoutline
 .text.d2_insertdlistjump_intern
                0x02009298       0x50 ./ra/tes/dave2d/src/dave_rbuffer.o
 .text.d2_seterr
                0x020092e8       0x22 ./ra/tes/dave2d/src/dave_rbuffer.o
 .text.d2_newrenderbuffer
                0x0200930a       0xc6 ./ra/tes/dave2d/src/dave_rbuffer.o
                0x0200930a                d2_newrenderbuffer
 .text.d2_selectrenderbuffer
                0x020093d0      0x10c ./ra/tes/dave2d/src/dave_rbuffer.o
                0x020093d0                d2_selectrenderbuffer
 .text.d2_executerenderbuffer
                0x020094dc       0xa0 ./ra/tes/dave2d/src/dave_rbuffer.o
                0x020094dc                d2_executerenderbuffer
 .text.d2_startframe
                0x0200957c       0x4a ./ra/tes/dave2d/src/dave_rbuffer.o
                0x0200957c                d2_startframe
 .text.d2_endframe
                0x020095c6       0x20 ./ra/tes/dave2d/src/dave_rbuffer.o
                0x020095c6                d2_endframe
 .text.d2_initrblayer_intern
                0x020095e6       0x3e ./ra/tes/dave2d/src/dave_rbuffer.o
                0x020095e6                d2_initrblayer_intern
 .text.d2_resizerblayer_intern
                0x02009624       0x5a ./ra/tes/dave2d/src/dave_rbuffer.o
 .text.d2_scratchgrowlayer_intern
                0x0200967e       0x82 ./ra/tes/dave2d/src/dave_rbuffer.o
 .text.d2_rendertolayer_intern
                0x02009700       0x8c ./ra/tes/dave2d/src/dave_rbuffer.o
                0x02009700                d2_rendertolayer_intern
 .text.d2_rendertobase_intern
                0x0200978c       0x5e ./ra/tes/dave2d/src/dave_rbuffer.o
                0x0200978c                d2_rendertobase_intern
 *fill*         0x020097ea        0x2 ff
 .text.d2_layer2dlist_intern
                0x020097ec       0x8c ./ra/tes/dave2d/src/dave_rbuffer.o
                0x020097ec                d2_layer2dlist_intern
 .text.d2_seterr
                0x02009878       0x22 ./ra/tes/dave2d/src/dave_render.o
 .text.d2_add2dlist_intern
                0x0200989a       0x5a ./ra/tes/dave2d/src/dave_render.o
 .text.d2_checkwaitpipeline_intern
                0x020098f4       0x38 ./ra/tes/dave2d/src/dave_render.o
 .text.d2_setupmaterial_intern
                0x0200992c      0x410 ./ra/tes/dave2d/src/dave_render.o
                0x0200992c                d2_setupmaterial_intern
 .text.d2_startrender_intern
                0x02009d3c      0x124 ./ra/tes/dave2d/src/dave_render.o
                0x02009d3c                d2_startrender_intern
 .text.d2_startrender_bottom_intern
                0x02009e60      0x128 ./ra/tes/dave2d/src/dave_render.o
                0x02009e60                d2_startrender_bottom_intern
 .text.d2_clear
                0x02009f88       0x24 ./ra/tes/dave2d/src/dave_render.o
                0x02009f88                d2_clear
 .text.d2_renderbox
                0x02009fac      0x118 ./ra/tes/dave2d/src/dave_render.o
                0x02009fac                d2_renderbox
 .text.d2_renderline
                0x0200a0c4      0x154 ./ra/tes/dave2d/src/dave_render.o
                0x0200a0c4                d2_renderline
 .text.d2_rendertri
                0x0200a218      0x178 ./ra/tes/dave2d/src/dave_render.o
                0x0200a218                d2_rendertri
 .text.d2_renderpolyline
                0x0200a390       0xe8 ./ra/tes/dave2d/src/dave_render.o
                0x0200a390                d2_renderpolyline
 .text.d2_add2dlist_intern
                0x0200a478       0x5a ./ra/tes/dave2d/src/dave_texture.o
 *fill*         0x0200a4d2        0x2 ff
 .text.d2_textureoperator
                0x0200a4d4       0xec ./ra/tes/dave2d/src/dave_texture.o
 .text.d2_setuptextureblend_intern
                0x0200a5c0       0xfc ./ra/tes/dave2d/src/dave_texture.o
                0x0200a5c0                d2_setuptextureblend_intern
 .text.d2_calctexturealpha_intern
                0x0200a6bc       0x90 ./ra/tes/dave2d/src/dave_texture.o
                0x0200a6bc                d2_calctexturealpha_intern
 .text.d2_setupuvlimiter_intern
                0x0200a74c      0x148 ./ra/tes/dave2d/src/dave_texture.o
 .text.d2_setupuvlimiter_invert_intern
                0x0200a894      0x14c ./ra/tes/dave2d/src/dave_texture.o
 .text.d2_setuptexture
                0x0200a9e0       0x3a ./ra/tes/dave2d/src/dave_texture.o
                0x0200a9e0                d2_setuptexture
 .text.d2_add2dlist_intern
                0x0200aa1a       0x5a ./ra/tes/dave2d/src/dave_triangle.o
 .text.d2_rendertri_intern
                0x0200aa74      0x6e0 ./ra/tes/dave2d/src/dave_triangle.o
 .text.d2_rendertri_solid
                0x0200b154       0x54 ./ra/tes/dave2d/src/dave_triangle.o
                0x0200b154                d2_rendertri_solid
 .text.d2_rendertri_shadow
                0x0200b1a8       0x8e ./ra/tes/dave2d/src/dave_triangle.o
                0x0200b1a8                d2_rendertri_shadow
 .text.d2_rendertri_solidshadow
                0x0200b236       0xca ./ra/tes/dave2d/src/dave_triangle.o
                0x0200b236                d2_rendertri_solidshadow
 .text.d2_rendertri_outline
                0x0200b300      0x1e4 ./ra/tes/dave2d/src/dave_triangle.o
                0x0200b300                d2_rendertri_outline
 .text.d2_rendertri_solidoutline
                0x0200b4e4       0x8a ./ra/tes/dave2d/src/dave_triangle.o
                0x0200b4e4                d2_rendertri_solidoutline
 .text.d2_seterr
                0x0200b56e       0x22 ./ra/tes/dave2d/src/dave_viewport.o
 .text.d2_cliprect
                0x0200b590       0xf4 ./ra/tes/dave2d/src/dave_viewport.o
                0x0200b590                d2_cliprect
 .text.d2_framebuffer
                0x0200b684      0x160 ./ra/tes/dave2d/src/dave_viewport.o
                0x0200b684                d2_framebuffer
 .text.d2_clipbbox_intern
                0x0200b7e4       0xc4 ./ra/tes/dave2d/src/dave_viewport.o
                0x0200b7e4                d2_clipbbox_intern
 .text.__NVIC_SetPriority
                0x0200b8a8       0x54 ./ra/fsp/src/r_sci_b_uart/r_sci_b_uart.o
 .text.R_FSP_CurrentIrqGet
                0x0200b8fc       0x2c ./ra/fsp/src/r_sci_b_uart/r_sci_b_uart.o
 .text.R_FSP_IsrContextSet
                0x0200b928       0x28 ./ra/fsp/src/r_sci_b_uart/r_sci_b_uart.o
 .text.R_FSP_IsrContextGet
                0x0200b950       0x24 ./ra/fsp/src/r_sci_b_uart/r_sci_b_uart.o
 .text.R_BSP_IrqStatusClear
                0x0200b974       0x40 ./ra/fsp/src/r_sci_b_uart/r_sci_b_uart.o
 .text.R_BSP_IrqClearPending
                0x0200b9b4       0x48 ./ra/fsp/src/r_sci_b_uart/r_sci_b_uart.o
 .text.R_BSP_IrqCfg
                0x0200b9fc       0x2e ./ra/fsp/src/r_sci_b_uart/r_sci_b_uart.o
 *fill*         0x0200ba2a        0x2 ff
 .text.R_BSP_IrqEnableNoClear
                0x0200ba2c       0x38 ./ra/fsp/src/r_sci_b_uart/r_sci_b_uart.o
 .text.R_BSP_IrqEnable
                0x0200ba64       0x26 ./ra/fsp/src/r_sci_b_uart/r_sci_b_uart.o
 *fill*         0x0200ba8a        0x2 ff
 .text.R_BSP_IrqDisable
                0x0200ba8c       0x48 ./ra/fsp/src/r_sci_b_uart/r_sci_b_uart.o
 .text.R_SCI_B_UART_Open
                0x0200bad4      0x2a0 ./ra/fsp/src/r_sci_b_uart/r_sci_b_uart.o
                0x0200bad4                R_SCI_B_UART_Open
 .text.R_SCI_B_UART_Close
                0x0200bd74      0x114 ./ra/fsp/src/r_sci_b_uart/r_sci_b_uart.o
                0x0200bd74                R_SCI_B_UART_Close
 .text.R_SCI_B_UART_Read
                0x0200be88       0x4c ./ra/fsp/src/r_sci_b_uart/r_sci_b_uart.o
                0x0200be88                R_SCI_B_UART_Read
 .text.R_SCI_B_UART_Write
                0x0200bed4       0x9c ./ra/fsp/src/r_sci_b_uart/r_sci_b_uart.o
                0x0200bed4                R_SCI_B_UART_Write
 .text.R_SCI_B_UART_CallbackSet
                0x0200bf70       0x78 ./ra/fsp/src/r_sci_b_uart/r_sci_b_uart.o
                0x0200bf70                R_SCI_B_UART_CallbackSet
 .text.R_SCI_B_UART_BaudSet
                0x0200bfe8       0xa4 ./ra/fsp/src/r_sci_b_uart/r_sci_b_uart.o
                0x0200bfe8                R_SCI_B_UART_BaudSet
 .text.R_SCI_B_UART_InfoGet
                0x0200c08c       0x74 ./ra/fsp/src/r_sci_b_uart/r_sci_b_uart.o
                0x0200c08c                R_SCI_B_UART_InfoGet
 .text.R_SCI_B_UART_Abort
                0x0200c100       0xc8 ./ra/fsp/src/r_sci_b_uart/r_sci_b_uart.o
                0x0200c100                R_SCI_B_UART_Abort
 .text.R_SCI_B_UART_ReadStop
                0x0200c1c8       0x58 ./ra/fsp/src/r_sci_b_uart/r_sci_b_uart.o
                0x0200c1c8                R_SCI_B_UART_ReadStop
 .text.r_sci_b_read_write_param_check
                0x0200c220       0xa4 ./ra/fsp/src/r_sci_b_uart/r_sci_b_uart.o
 .text.r_sci_b_uart_config_set
                0x0200c2c4      0x170 ./ra/fsp/src/r_sci_b_uart/r_sci_b_uart.o
 .text.r_sci_b_irq_cfg
                0x0200c434       0x3a ./ra/fsp/src/r_sci_b_uart/r_sci_b_uart.o
 .text.r_sci_b_irqs_cfg
                0x0200c46e       0x5a ./ra/fsp/src/r_sci_b_uart/r_sci_b_uart.o
 .text.r_sci_b_uart_call_callback
                0x0200c4c8       0x76 ./ra/fsp/src/r_sci_b_uart/r_sci_b_uart.o
 .text.sci_b_uart_txi_isr
                0x0200c53e       0xd6 ./ra/fsp/src/r_sci_b_uart/r_sci_b_uart.o
                0x0200c53e                sci_b_uart_txi_isr
 .text.sci_b_uart_rxi_isr
                0x0200c614       0xca ./ra/fsp/src/r_sci_b_uart/r_sci_b_uart.o
                0x0200c614                sci_b_uart_rxi_isr
 .text.sci_b_uart_tei_isr
                0x0200c6de       0x52 ./ra/fsp/src/r_sci_b_uart/r_sci_b_uart.o
                0x0200c6de                sci_b_uart_tei_isr
 .text.sci_b_uart_eri_isr
                0x0200c730       0xf0 ./ra/fsp/src/r_sci_b_uart/r_sci_b_uart.o
                0x0200c730                sci_b_uart_eri_isr
 .text.R_FSP_SystemClockHzGet
                0x0200c820       0xc0 ./ra/fsp/src/r_mipi_phy/r_mipi_phy.o
 .text.r_mipi_phy_open
                0x0200c8e0       0xe0 ./ra/fsp/src/r_mipi_phy/r_mipi_phy.o
                0x0200c8e0                r_mipi_phy_open
 .text.r_mipi_phy_close
                0x0200c9c0       0x44 ./ra/fsp/src/r_mipi_phy/r_mipi_phy.o
                0x0200c9c0                r_mipi_phy_close
 .text.__NVIC_SetPriority
                0x0200ca04       0x54 ./ra/fsp/src/r_mipi_dsi/r_mipi_dsi.o
 .text.R_FSP_CurrentIrqGet
                0x0200ca58       0x2c ./ra/fsp/src/r_mipi_dsi/r_mipi_dsi.o
 .text.R_FSP_IsrContextSet
                0x0200ca84       0x28 ./ra/fsp/src/r_mipi_dsi/r_mipi_dsi.o
 .text.R_FSP_IsrContextGet
                0x0200caac       0x24 ./ra/fsp/src/r_mipi_dsi/r_mipi_dsi.o
 .text.R_BSP_IrqStatusClear
                0x0200cad0       0x40 ./ra/fsp/src/r_mipi_dsi/r_mipi_dsi.o
 .text.R_BSP_IrqClearPending
                0x0200cb10       0x48 ./ra/fsp/src/r_mipi_dsi/r_mipi_dsi.o
 .text.R_BSP_IrqCfg
                0x0200cb58       0x2e ./ra/fsp/src/r_mipi_dsi/r_mipi_dsi.o
 *fill*         0x0200cb86        0x2 ff
 .text.R_BSP_IrqEnableNoClear
                0x0200cb88       0x38 ./ra/fsp/src/r_mipi_dsi/r_mipi_dsi.o
 .text.R_BSP_IrqEnable
                0x0200cbc0       0x26 ./ra/fsp/src/r_mipi_dsi/r_mipi_dsi.o
 *fill*         0x0200cbe6        0x2 ff
 .text.R_BSP_IrqDisable
                0x0200cbe8       0x48 ./ra/fsp/src/r_mipi_dsi/r_mipi_dsi.o
 .text.R_BSP_IrqCfgEnable
                0x0200cc30       0x2e ./ra/fsp/src/r_mipi_dsi/r_mipi_dsi.o
 *fill*         0x0200cc5e        0x2 ff
 .text.R_MIPI_DSI_Open
                0x0200cc60      0x1fc ./ra/fsp/src/r_mipi_dsi/r_mipi_dsi.o
                0x0200cc60                R_MIPI_DSI_Open
 .text.R_MIPI_DSI_Close
                0x0200ce5c       0xf8 ./ra/fsp/src/r_mipi_dsi/r_mipi_dsi.o
                0x0200ce5c                R_MIPI_DSI_Close
 .text.R_MIPI_DSI_Start
                0x0200cf54       0xf4 ./ra/fsp/src/r_mipi_dsi/r_mipi_dsi.o
                0x0200cf54                R_MIPI_DSI_Start
 .text.R_MIPI_DSI_Stop
                0x0200d048       0x50 ./ra/fsp/src/r_mipi_dsi/r_mipi_dsi.o
                0x0200d048                R_MIPI_DSI_Stop
 .text.R_MIPI_DSI_UlpsEnter
                0x0200d098      0x11c ./ra/fsp/src/r_mipi_dsi/r_mipi_dsi.o
                0x0200d098                R_MIPI_DSI_UlpsEnter
 .text.R_MIPI_DSI_UlpsExit
                0x0200d1b4       0xf8 ./ra/fsp/src/r_mipi_dsi/r_mipi_dsi.o
                0x0200d1b4                R_MIPI_DSI_UlpsExit
 .text.R_MIPI_DSI_Command
                0x0200d2ac      0x20c ./ra/fsp/src/r_mipi_dsi/r_mipi_dsi.o
                0x0200d2ac                R_MIPI_DSI_Command
 .text.R_MIPI_DSI_StatusGet
                0x0200d4b8       0x90 ./ra/fsp/src/r_mipi_dsi/r_mipi_dsi.o
                0x0200d4b8                R_MIPI_DSI_StatusGet
 .text.dsi_stop
                0x0200d548       0x78 ./ra/fsp/src/r_mipi_dsi/r_mipi_dsi.o
 .text.dsi_cmd_sequence_register_a
                0x0200d5c0       0xd0 ./ra/fsp/src/r_mipi_dsi/r_mipi_dsi.o
 .text.dsi_cmd_sequence_register_b
                0x0200d690       0x18 ./ra/fsp/src/r_mipi_dsi/r_mipi_dsi.o
 .text.dsi_cmd_sequence_register_c
                0x0200d6a8       0x52 ./ra/fsp/src/r_mipi_dsi/r_mipi_dsi.o
 .text.dsi_cmd_sequence_register_d
                0x0200d6fa       0x2e ./ra/fsp/src/r_mipi_dsi/r_mipi_dsi.o
 .text.dsi_call_callback
                0x0200d728       0x5c ./ra/fsp/src/r_mipi_dsi/r_mipi_dsi.o
 .text.dsi_enter_reset
                0x0200d784       0x40 ./ra/fsp/src/r_mipi_dsi/r_mipi_dsi.o
 .text.dsi_init_timing
                0x0200d7c4      0x100 ./ra/fsp/src/r_mipi_dsi/r_mipi_dsi.o
 .text.dsi_exit_reset
                0x0200d8c4       0x6c ./ra/fsp/src/r_mipi_dsi/r_mipi_dsi.o
 .text.dsi_hs_clock_start
                0x0200d930       0x74 ./ra/fsp/src/r_mipi_dsi/r_mipi_dsi.o
 .text.dsi_hs_clock_stop
                0x0200d9a4       0x60 ./ra/fsp/src/r_mipi_dsi/r_mipi_dsi.o
 .text.dsi_init_video
                0x0200da04       0xe0 ./ra/fsp/src/r_mipi_dsi/r_mipi_dsi.o
 .text.dsi_isr_enable
                0x0200dae4       0x24 ./ra/fsp/src/r_mipi_dsi/r_mipi_dsi.o
 .text.dsi_isr_disable
                0x0200db08       0x2a ./ra/fsp/src/r_mipi_dsi/r_mipi_dsi.o
 *fill*         0x0200db32        0x2 ff
 .text.mipi_dsi_seq0
                0x0200db34       0x58 ./ra/fsp/src/r_mipi_dsi/r_mipi_dsi.o
                0x0200db34                mipi_dsi_seq0
 .text.mipi_dsi_seq1
                0x0200db8c       0x58 ./ra/fsp/src/r_mipi_dsi/r_mipi_dsi.o
                0x0200db8c                mipi_dsi_seq1
 .text.mipi_dsi_vin1
                0x0200dbe4       0x98 ./ra/fsp/src/r_mipi_dsi/r_mipi_dsi.o
                0x0200dbe4                mipi_dsi_vin1
 .text.mipi_dsi_rcv
                0x0200dc7c       0x68 ./ra/fsp/src/r_mipi_dsi/r_mipi_dsi.o
                0x0200dc7c                mipi_dsi_rcv
 .text.mipi_dsi_ferr
                0x0200dce4       0x58 ./ra/fsp/src/r_mipi_dsi/r_mipi_dsi.o
                0x0200dce4                mipi_dsi_ferr
 .text.mipi_dsi_ppi
                0x0200dd3c       0x94 ./ra/fsp/src/r_mipi_dsi/r_mipi_dsi.o
                0x0200dd3c                mipi_dsi_ppi
 .text.R_BSP_PinRead
                0x0200ddd0       0x38 ./ra/fsp/src/r_ioport/r_ioport.o
 .text.R_BSP_PinAccessEnable
                0x0200de08       0x60 ./ra/fsp/src/r_ioport/r_ioport.o
 .text.R_BSP_PinAccessDisable
                0x0200de68       0x68 ./ra/fsp/src/r_ioport/r_ioport.o
 .text.R_IOPORT_Open
                0x0200ded0       0x8c ./ra/fsp/src/r_ioport/r_ioport.o
                0x0200ded0                R_IOPORT_Open
 .text.R_IOPORT_Close
                0x0200df5c       0x4c ./ra/fsp/src/r_ioport/r_ioport.o
                0x0200df5c                R_IOPORT_Close
 .text.R_IOPORT_PinsCfg
                0x0200dfa8       0x7c ./ra/fsp/src/r_ioport/r_ioport.o
                0x0200dfa8                R_IOPORT_PinsCfg
 .text.R_IOPORT_PinCfg
                0x0200e024       0x7c ./ra/fsp/src/r_ioport/r_ioport.o
                0x0200e024                R_IOPORT_PinCfg
 .text.R_IOPORT_PinRead
                0x0200e0a0       0x78 ./ra/fsp/src/r_ioport/r_ioport.o
                0x0200e0a0                R_IOPORT_PinRead
 .text.R_IOPORT_PortRead
                0x0200e118       0x84 ./ra/fsp/src/r_ioport/r_ioport.o
                0x0200e118                R_IOPORT_PortRead
 .text.R_IOPORT_PortWrite
                0x0200e19c       0xa0 ./ra/fsp/src/r_ioport/r_ioport.o
                0x0200e19c                R_IOPORT_PortWrite
 .text.R_IOPORT_PinWrite
                0x0200e23c       0xac ./ra/fsp/src/r_ioport/r_ioport.o
                0x0200e23c                R_IOPORT_PinWrite
 .text.R_IOPORT_PortDirectionSet
                0x0200e2e8       0xb0 ./ra/fsp/src/r_ioport/r_ioport.o
                0x0200e2e8                R_IOPORT_PortDirectionSet
 .text.R_IOPORT_PortEventInputRead
                0x0200e398       0xa4 ./ra/fsp/src/r_ioport/r_ioport.o
                0x0200e398                R_IOPORT_PortEventInputRead
 .text.R_IOPORT_PinEventInputRead
                0x0200e43c       0xc8 ./ra/fsp/src/r_ioport/r_ioport.o
                0x0200e43c                R_IOPORT_PinEventInputRead
 .text.R_IOPORT_PortEventOutputWrite
                0x0200e504       0xbc ./ra/fsp/src/r_ioport/r_ioport.o
                0x0200e504                R_IOPORT_PortEventOutputWrite
 .text.R_IOPORT_PinEventOutputWrite
                0x0200e5c0       0x94 ./ra/fsp/src/r_ioport/r_ioport.o
                0x0200e5c0                R_IOPORT_PinEventOutputWrite
 .text.r_ioport_pins_config
                0x0200e654       0x56 ./ra/fsp/src/r_ioport/r_ioport.o
 .text.r_ioport_hw_pin_event_output_data_write
                0x0200e6aa       0x78 ./ra/fsp/src/r_ioport/r_ioport.o
 *fill*         0x0200e722        0x2 ff
 .text.r_ioport_pfs_write
                0x0200e724       0x78 ./ra/fsp/src/r_ioport/r_ioport.o
 .text.bsp_vbatt_init
                0x0200e79c      0x17c ./ra/fsp/src/r_ioport/r_ioport.o
 .text.__NVIC_SetPriority
                0x0200e918       0x54 ./ra/fsp/src/r_gpt/r_gpt.o
 .text.R_FSP_CurrentIrqGet
                0x0200e96c       0x2c ./ra/fsp/src/r_gpt/r_gpt.o
 .text.R_FSP_SystemClockHzGet
                0x0200e998       0xc0 ./ra/fsp/src/r_gpt/r_gpt.o
 .text.R_FSP_IsrContextSet
                0x0200ea58       0x28 ./ra/fsp/src/r_gpt/r_gpt.o
 .text.R_FSP_IsrContextGet
                0x0200ea80       0x24 ./ra/fsp/src/r_gpt/r_gpt.o
 .text.R_BSP_IrqStatusClear
                0x0200eaa4       0x40 ./ra/fsp/src/r_gpt/r_gpt.o
 .text.R_BSP_IrqClearPending
                0x0200eae4       0x48 ./ra/fsp/src/r_gpt/r_gpt.o
 .text.R_BSP_IrqCfg
                0x0200eb2c       0x2e ./ra/fsp/src/r_gpt/r_gpt.o
 *fill*         0x0200eb5a        0x2 ff
 .text.R_BSP_IrqEnableNoClear
                0x0200eb5c       0x38 ./ra/fsp/src/r_gpt/r_gpt.o
 .text.R_BSP_IrqEnable
                0x0200eb94       0x26 ./ra/fsp/src/r_gpt/r_gpt.o
 *fill*         0x0200ebba        0x2 ff
 .text.R_BSP_IrqDisable
                0x0200ebbc       0x48 ./ra/fsp/src/r_gpt/r_gpt.o
 .text.R_BSP_IrqCfgEnable
                0x0200ec04       0x2e ./ra/fsp/src/r_gpt/r_gpt.o
 *fill*         0x0200ec32        0x2 ff
 .text.R_GPT_Open
                0x0200ec34      0x128 ./ra/fsp/src/r_gpt/r_gpt.o
                0x0200ec34                R_GPT_Open
 .text.R_GPT_Stop
                0x0200ed5c       0x54 ./ra/fsp/src/r_gpt/r_gpt.o
                0x0200ed5c                R_GPT_Stop
 .text.R_GPT_Start
                0x0200edb0       0x54 ./ra/fsp/src/r_gpt/r_gpt.o
                0x0200edb0                R_GPT_Start
 .text.R_GPT_Reset
                0x0200ee04       0x54 ./ra/fsp/src/r_gpt/r_gpt.o
                0x0200ee04                R_GPT_Reset
 .text.R_GPT_Enable
                0x0200ee58       0xc4 ./ra/fsp/src/r_gpt/r_gpt.o
                0x0200ee58                R_GPT_Enable
 .text.R_GPT_Disable
                0x0200ef1c       0x64 ./ra/fsp/src/r_gpt/r_gpt.o
                0x0200ef1c                R_GPT_Disable
 .text.R_GPT_PeriodSet
                0x0200ef80       0x90 ./ra/fsp/src/r_gpt/r_gpt.o
                0x0200ef80                R_GPT_PeriodSet
 .text.R_GPT_DutyCycleSet
                0x0200f010       0x1a ./ra/fsp/src/r_gpt/r_gpt.o
                0x0200f010                R_GPT_DutyCycleSet
 *fill*         0x0200f02a        0x2 ff
 .text.R_GPT_CompareMatchSet
                0x0200f02c       0x9c ./ra/fsp/src/r_gpt/r_gpt.o
                0x0200f02c                R_GPT_CompareMatchSet
 .text.R_GPT_InfoGet
                0x0200f0c8       0x88 ./ra/fsp/src/r_gpt/r_gpt.o
                0x0200f0c8                R_GPT_InfoGet
 .text.R_GPT_StatusGet
                0x0200f150       0x80 ./ra/fsp/src/r_gpt/r_gpt.o
                0x0200f150                R_GPT_StatusGet
 .text.R_GPT_CallbackSet
                0x0200f1d0       0x78 ./ra/fsp/src/r_gpt/r_gpt.o
                0x0200f1d0                R_GPT_CallbackSet
 .text.R_GPT_Close
                0x0200f248       0xa8 ./ra/fsp/src/r_gpt/r_gpt.o
                0x0200f248                R_GPT_Close
 .text.r_gpt_write_protect_enable
                0x0200f2f0       0x16 ./ra/fsp/src/r_gpt/r_gpt.o
 .text.r_gpt_write_protect_disable
                0x0200f306       0x16 ./ra/fsp/src/r_gpt/r_gpt.o
 .text.gpt_common_open
                0x0200f31c       0x60 ./ra/fsp/src/r_gpt/r_gpt.o
 .text.gpt_hardware_initialize
                0x0200f37c      0x1b8 ./ra/fsp/src/r_gpt/r_gpt.o
 .text.gpt_hardware_events_disable
                0x0200f534       0x42 ./ra/fsp/src/r_gpt/r_gpt.o
 .text.r_gpt_disable_irq
                0x0200f576       0x30 ./ra/fsp/src/r_gpt/r_gpt.o
 .text.r_gpt_enable_irq
                0x0200f5a6       0x2c ./ra/fsp/src/r_gpt/r_gpt.o
 .text.gpt_clock_frequency_get
                0x0200f5d2       0x2e ./ra/fsp/src/r_gpt/r_gpt.o
 .text.r_gpt_init_compare_match_channel
                0x0200f600       0x54 ./ra/fsp/src/r_gpt/r_gpt.o
 .text.r_gpt_call_callback
                0x0200f654       0x6c ./ra/fsp/src/r_gpt/r_gpt.o
 .text.gpt_counter_overflow_isr
                0x0200f6c0       0x8a ./ra/fsp/src/r_gpt/r_gpt.o
                0x0200f6c0                gpt_counter_overflow_isr
 *fill*         0x0200f74a        0x2 ff
 .text.__NVIC_SetPriority
                0x0200f74c       0x54 ./ra/fsp/src/r_glcdc/r_glcdc.o
 .text.R_FSP_CurrentIrqGet
                0x0200f7a0       0x2c ./ra/fsp/src/r_glcdc/r_glcdc.o
 .text.R_FSP_IsrContextSet
                0x0200f7cc       0x28 ./ra/fsp/src/r_glcdc/r_glcdc.o
 .text.R_BSP_IrqStatusClear
                0x0200f7f4       0x40 ./ra/fsp/src/r_glcdc/r_glcdc.o
 .text.R_BSP_IrqClearPending
                0x0200f834       0x48 ./ra/fsp/src/r_glcdc/r_glcdc.o
 .text.R_BSP_IrqCfg
                0x0200f87c       0x2e ./ra/fsp/src/r_glcdc/r_glcdc.o
 *fill*         0x0200f8aa        0x2 ff
 .text.R_BSP_IrqEnableNoClear
                0x0200f8ac       0x38 ./ra/fsp/src/r_glcdc/r_glcdc.o
 .text.R_BSP_IrqEnable
                0x0200f8e4       0x26 ./ra/fsp/src/r_glcdc/r_glcdc.o
 *fill*         0x0200f90a        0x2 ff
 .text.R_BSP_IrqDisable
                0x0200f90c       0x48 ./ra/fsp/src/r_glcdc/r_glcdc.o
 .text.R_BSP_IrqCfgEnable
                0x0200f954       0x2e ./ra/fsp/src/r_glcdc/r_glcdc.o
 *fill*         0x0200f982        0x2 ff
 .text.R_GLCDC_Open
                0x0200f984      0x224 ./ra/fsp/src/r_glcdc/r_glcdc.o
                0x0200f984                R_GLCDC_Open
 .text.R_GLCDC_Close
                0x0200fba8      0x16c ./ra/fsp/src/r_glcdc/r_glcdc.o
                0x0200fba8                R_GLCDC_Close
 .text.R_GLCDC_Start
                0x0200fd14       0xa4 ./ra/fsp/src/r_glcdc/r_glcdc.o
                0x0200fd14                R_GLCDC_Start
 .text.R_GLCDC_Stop
                0x0200fdb8       0x48 ./ra/fsp/src/r_glcdc/r_glcdc.o
                0x0200fdb8                R_GLCDC_Stop
 .text.R_GLCDC_LayerChange
                0x0200fe00       0xb8 ./ra/fsp/src/r_glcdc/r_glcdc.o
                0x0200fe00                R_GLCDC_LayerChange
 .text.R_GLCDC_BufferChange
                0x0200feb8       0xf8 ./ra/fsp/src/r_glcdc/r_glcdc.o
                0x0200feb8                R_GLCDC_BufferChange
 .text.R_GLCDC_ColorCorrection
                0x0200ffb0       0x18 ./ra/fsp/src/r_glcdc/r_glcdc.o
                0x0200ffb0                R_GLCDC_ColorCorrection
 .text.R_GLCDC_ClutUpdate
                0x0200ffc8       0xf4 ./ra/fsp/src/r_glcdc/r_glcdc.o
                0x0200ffc8                R_GLCDC_ClutUpdate
 .text.R_GLCDC_ClutEdit
                0x020100bc       0xdc ./ra/fsp/src/r_glcdc/r_glcdc.o
                0x020100bc                R_GLCDC_ClutEdit
 .text.R_GLCDC_ColorKeySet
                0x02010198       0x22 ./ra/fsp/src/r_glcdc/r_glcdc.o
                0x02010198                R_GLCDC_ColorKeySet
 *fill*         0x020101ba        0x2 ff
 .text.R_GLCDC_StatusGet
                0x020101bc       0xd4 ./ra/fsp/src/r_glcdc/r_glcdc.o
                0x020101bc                R_GLCDC_StatusGet
 .text.r_glcdc_stop
                0x02010290       0xc0 ./ra/fsp/src/r_glcdc/r_glcdc.o
 .text.r_glcdc_param_check_layer_setting_alignment
                0x02010350       0x72 ./ra/fsp/src/r_glcdc/r_glcdc.o
 .text.r_glcdc_param_check_display_cycle
                0x020103c2       0x78 ./ra/fsp/src/r_glcdc/r_glcdc.o
 .text.r_glcdc_param_check_display_timing
                0x0201043a       0x8a ./ra/fsp/src/r_glcdc/r_glcdc.o
 .text.r_glcdc_open_param_check_sync_signal
                0x020104c4       0x52 ./ra/fsp/src/r_glcdc/r_glcdc.o
 .text.r_glcdc_open_param_check_layer_setting
                0x02010516      0x102 ./ra/fsp/src/r_glcdc/r_glcdc.o
 .text.r_glcdc_open_param_check
                0x02010618       0x88 ./ra/fsp/src/r_glcdc/r_glcdc.o
 .text.r_glcdc_clock_set
                0x020106a0       0x6c ./ra/fsp/src/r_glcdc/r_glcdc.o
 .text.r_glcdc_sync_signal_set
                0x0201070c       0xc4 ./ra/fsp/src/r_glcdc/r_glcdc.o
 .text.r_glcdc_tcon_set
                0x020107d0       0x78 ./ra/fsp/src/r_glcdc/r_glcdc.o
 .text.r_glcdc_hsync_set
                0x02010848       0x3c ./ra/fsp/src/r_glcdc/r_glcdc.o
 .text.r_glcdc_vsync_set
                0x02010884       0x3c ./ra/fsp/src/r_glcdc/r_glcdc.o
 .text.r_glcdc_data_enable_set
                0x020108c0       0x70 ./ra/fsp/src/r_glcdc/r_glcdc.o
 .text.r_glcdc_background_screen_set
                0x02010930       0xa8 ./ra/fsp/src/r_glcdc/r_glcdc.o
 .text.r_glcdc_graphics_layer_blend_condition_set
                0x020109d8       0xb8 ./ra/fsp/src/r_glcdc/r_glcdc.o
 .text.r_glcdc_graphics_layer_param_recalculation
                0x02010a90      0x134 ./ra/fsp/src/r_glcdc/r_glcdc.o
 .text.r_glcdc_graphics_layer_set
                0x02010bc4      0x20c ./ra/fsp/src/r_glcdc/r_glcdc.o
 .text.r_glcdc_output_block_set
                0x02010dd0       0xe8 ./ra/fsp/src/r_glcdc/r_glcdc.o
 .text.r_glcdc_get_bit_size
                0x02010eb8       0x24 ./ra/fsp/src/r_glcdc/r_glcdc.o
 .text.glcdc_line_detect_isr
                0x02010edc       0x90 ./ra/fsp/src/r_glcdc/r_glcdc.o
                0x02010edc                glcdc_line_detect_isr
 .text.r_glcdc_interrupt_enable
                0x02010f6c       0x9c ./ra/fsp/src/r_glcdc/r_glcdc.o
 .text.r_glcdc_pixel_size_recalculate
                0x02011008      0x158 ./ra/fsp/src/r_glcdc/r_glcdc.o
 .text.d1_opendevice
                0x02011160       0xb0 ./ra/fsp/src/r_drw/r_drw_base.o
                0x02011160                d1_opendevice
 .text.d1_setregister
                0x02011210       0x74 ./ra/fsp/src/r_drw/r_drw_base.o
                0x02011210                d1_setregister
 .text.d1_getregister
                0x02011284       0x46 ./ra/fsp/src/r_drw/r_drw_base.o
                0x02011284                d1_getregister
 .text.d1_devicesupported
                0x020112ca       0x32 ./ra/fsp/src/r_drw/r_drw_base.o
                0x020112ca                d1_devicesupported
 .text.__NVIC_SetPriority
                0x020112fc       0x54 ./ra/fsp/src/r_drw/r_drw_irq.o
 .text.R_FSP_CurrentIrqGet
                0x02011350       0x2c ./ra/fsp/src/r_drw/r_drw_irq.o
 .text.R_FSP_IsrContextSet
                0x0201137c       0x28 ./ra/fsp/src/r_drw/r_drw_irq.o
 .text.R_FSP_IsrContextGet
                0x020113a4       0x24 ./ra/fsp/src/r_drw/r_drw_irq.o
 .text.R_BSP_IrqStatusClear
                0x020113c8       0x40 ./ra/fsp/src/r_drw/r_drw_irq.o
 .text.R_BSP_IrqClearPending
                0x02011408       0x48 ./ra/fsp/src/r_drw/r_drw_irq.o
 .text.R_BSP_IrqCfg
                0x02011450       0x2e ./ra/fsp/src/r_drw/r_drw_irq.o
 *fill*         0x0201147e        0x2 ff
 .text.R_BSP_IrqEnableNoClear
                0x02011480       0x38 ./ra/fsp/src/r_drw/r_drw_irq.o
 .text.R_BSP_IrqEnable
                0x020114b8       0x26 ./ra/fsp/src/r_drw/r_drw_irq.o
 .text.R_BSP_IrqCfgEnable
                0x020114de       0x2e ./ra/fsp/src/r_drw/r_drw_irq.o
 .text.d1_initirq_intern
                0x0201150c       0x38 ./ra/fsp/src/r_drw/r_drw_irq.o
                0x0201150c                d1_initirq_intern
 .text.d1_queryirq
                0x02011544       0x54 ./ra/fsp/src/r_drw/r_drw_irq.o
                0x02011544                d1_queryirq
 .text.drw_int_isr
                0x02011598       0x80 ./ra/fsp/src/r_drw/r_drw_irq.o
                0x02011598                drw_int_isr
 .text.d1_allocmem
                0x02011618       0x18 ./ra/fsp/src/r_drw/r_drw_memory.o
                0x02011618                d1_allocmem
 .text.d1_freemem
                0x02011630       0x16 ./ra/fsp/src/r_drw/r_drw_memory.o
                0x02011630                d1_freemem
 .text.d1_memsize
                0x02011646       0x16 ./ra/fsp/src/r_drw/r_drw_memory.o
                0x02011646                d1_memsize
 .text.d1_allocvidmem
                0x0201165c       0x1c ./ra/fsp/src/r_drw/r_drw_memory.o
                0x0201165c                d1_allocvidmem
 .text.d1_freevidmem
                0x02011678       0x1a ./ra/fsp/src/r_drw/r_drw_memory.o
                0x02011678                d1_freevidmem
 .text.d1_queryarchitecture
                0x02011692       0x16 ./ra/fsp/src/r_drw/r_drw_memory.o
                0x02011692                d1_queryarchitecture
 .text.d1_maptovidmem
                0x020116a8       0x18 ./ra/fsp/src/r_drw/r_drw_memory.o
                0x020116a8                d1_maptovidmem
 .text.d1_mapfromvidmem
                0x020116c0       0x18 ./ra/fsp/src/r_drw/r_drw_memory.o
                0x020116c0                d1_mapfromvidmem
 .text.d1_copytovidmem
                0x020116d8       0x22 ./ra/fsp/src/r_drw/r_drw_memory.o
                0x020116d8                d1_copytovidmem
 .text.d1_cacheblockflush
                0x020116fa       0x1c ./ra/fsp/src/r_drw/r_drw_memory.o
                0x020116fa                d1_cacheblockflush
 *fill*         0x02011716        0x2 ff
 .text.R_BSP_FlashCacheEnable
                0x02011718       0x28 ./ra/fsp/src/bsp/mcu/all/bsp_clocks.o
 .text.SystemCoreClockUpdate
                0x02011740       0xa4 ./ra/fsp/src/bsp/mcu/all/bsp_clocks.o
                0x02011740                SystemCoreClockUpdate
 .text.bsp_prv_clock_set_hard_reset
                0x020117e4       0x64 ./ra/fsp/src/bsp/mcu/all/bsp_clocks.o
 .text.bsp_clock_freq_var_init
                0x02011848       0x54 ./ra/fsp/src/bsp/mcu/all/bsp_clocks.o
 .text.bsp_clock_init
                0x0201189c       0xc4 ./ra/fsp/src/bsp/mcu/all/bsp_clocks.o
                0x0201189c                bsp_clock_init
 .text.R_BSP_SubClockStabilizeWaitAfterReset
                0x02011960       0x14 ./ra/fsp/src/bsp/mcu/all/bsp_clocks.o
                0x02011960                R_BSP_SubClockStabilizeWaitAfterReset
 .text.bsp_peripheral_clock_set
                0x02011974       0x7e ./ra/fsp/src/bsp/mcu/all/bsp_clocks.o
 *fill*         0x020119f2        0x2 ff
 .text.bsp_prv_sosc_init
                0x020119f4       0x6c ./ra/fsp/src/bsp/mcu/all/bsp_clocks.o
 .text.R_BSP_Init_RTC
                0x02011a60       0xbc ./ra/fsp/src/bsp/mcu/all/bsp_clocks.o
                0x02011a60                R_BSP_Init_RTC
 .text.R_FSP_VersionGet
                0x02011b1c       0x48 ./ra/fsp/src/bsp/mcu/all/bsp_common.o
                0x02011b1c                R_FSP_VersionGet
 .text.__assert_func
                0x02011b64       0x14 ./ra/fsp/src/bsp/mcu/all/bsp_common.o
                0x02011b64                __assert_func
 .text.R_BSP_SoftwareDelay
                0x02011b78       0xf8 ./ra/fsp/src/bsp/mcu/all/bsp_delay.o
                0x02011b78                R_BSP_SoftwareDelay
 .text.bsp_prv_software_delay_loop
                0x02011c70        0xc ./ra/fsp/src/bsp/mcu/all/bsp_delay.o
                0x02011c70                bsp_prv_software_delay_loop
 .text.bsp_group_irq_call
                0x02011c7c       0x30 ./ra/fsp/src/bsp/mcu/all/bsp_group_irq.o
 .text.NMI_Handler
                0x02011cac       0x80 ./ra/fsp/src/bsp/mcu/all/bsp_group_irq.o
                0x02011cac                NMI_Handler
 .text.bsp_irq_cfg
                0x02011d2c       0x50 ./ra/fsp/src/bsp/mcu/all/bsp_irq.o
                0x02011d2c                bsp_irq_cfg
 .text.R_BSP_RegisterProtectEnable
                0x02011d7c       0xa0 ./ra/fsp/src/bsp/mcu/all/bsp_register_protection.o
                0x02011d7c                R_BSP_RegisterProtectEnable
 .text.R_BSP_RegisterProtectDisable
                0x02011e1c       0x90 ./ra/fsp/src/bsp/mcu/all/bsp_register_protection.o
                0x02011e1c                R_BSP_RegisterProtectDisable
 .text._sbrk    0x02011eac       0x6c ./ra/fsp/src/bsp/mcu/all/bsp_sbrk.o
                0x02011eac                _sbrk
 .text.Reset_Handler
                0x02011f18       0x10 ./ra/fsp/src/bsp/cmsis/Device/RENESAS/Source/startup.o
                0x02011f18                Reset_Handler
 .text.Default_Handler
                0x02011f28       0x10 ./ra/fsp/src/bsp/cmsis/Device/RENESAS/Source/startup.o
                0x02011f28                DebugMon_Handler
                0x02011f28                HardFault_Handler
                0x02011f28                SysTick_Handler
                0x02011f28                PendSV_Handler
                0x02011f28                UsageFault_Handler
                0x02011f28                SecureFault_Handler
                0x02011f28                Default_Handler
                0x02011f28                MemManage_Handler
                0x02011f28                SVC_Handler
                0x02011f28                BusFault_Handler
 .text.SystemInit
                0x02011f38      0x1e8 ./ra/fsp/src/bsp/cmsis/Device/RENESAS/Source/system.o
                0x02011f38                SystemInit
 .text.memcpy_64
                0x02012120       0x34 ./ra/fsp/src/bsp/cmsis/Device/RENESAS/Source/system.o
 *fill*         0x02012154        0x4 ff
 .text.memset_64
                0x02012158       0x2c ./ra/fsp/src/bsp/cmsis/Device/RENESAS/Source/system.o
 .text.bsp_init_itcm
                0x02012184       0x38 ./ra/fsp/src/bsp/cmsis/Device/RENESAS/Source/system.o
 .text.bsp_init_dtcm
                0x020121bc       0x60 ./ra/fsp/src/bsp/cmsis/Device/RENESAS/Source/system.o
 .text.bsp_init
                0x0201221c       0x14 ./ra/board/ra8d1_ek/board_init.o
                0x0201221c                bsp_init
 .text.bsp_sdram_init
                0x02012230      0x17c ./ra/board/ra8d1_ek/board_sdram.o
                0x02012230                bsp_sdram_init
 .text          0x020123ac       0xa0 C:/Program Files (x86)/Arm GNU Toolchain arm-none-eabi/13.2 Rel1/bin/../lib/gcc/arm-none-eabi/13.2.1/thumb/v8-m.main+dp/hard\libgcc.a(_aeabi_ldivmod.o)
                0x020123ac                __aeabi_ldivmod
 .text.__udivmoddi4
                0x0201244c      0x300 C:/Program Files (x86)/Arm GNU Toolchain arm-none-eabi/13.2 Rel1/bin/../lib/gcc/arm-none-eabi/13.2.1/thumb/v8-m.main+dp/hard\libgcc.a(_udivmoddi4.o)
                0x0201244c                __udivmoddi4
 .text          0x0201274c        0x4 C:/Program Files (x86)/Arm GNU Toolchain arm-none-eabi/13.2 Rel1/bin/../lib/gcc/arm-none-eabi/13.2.1/thumb/v8-m.main+dp/hard\libgcc.a(_dvmd_tls.o)
                0x0201274c                __aeabi_idiv0
                0x0201274c                __aeabi_ldiv0
 .text.malloc   0x02012750       0x10 C:/Program Files (x86)/Arm GNU Toolchain arm-none-eabi/13.2 Rel1/bin/../lib/gcc/arm-none-eabi/13.2.1/thumb/v8-m.main+dp/hard\libg_nano.a(libc_a-malloc.o)
                0x02012750                malloc
 .text.free     0x02012760       0x10 C:/Program Files (x86)/Arm GNU Toolchain arm-none-eabi/13.2 Rel1/bin/../lib/gcc/arm-none-eabi/13.2.1/thumb/v8-m.main+dp/hard\libg_nano.a(libc_a-malloc.o)
                0x02012760                free
 .text.sbrk_aligned
                0x02012770       0x44 C:/Program Files (x86)/Arm GNU Toolchain arm-none-eabi/13.2 Rel1/bin/../lib/gcc/arm-none-eabi/13.2.1/thumb/v8-m.main+dp/hard\libg_nano.a(libc_a-mallocr.o)
 .text._malloc_r
                0x020127b4      0x100 C:/Program Files (x86)/Arm GNU Toolchain arm-none-eabi/13.2 Rel1/bin/../lib/gcc/arm-none-eabi/13.2.1/thumb/v8-m.main+dp/hard\libg_nano.a(libc_a-mallocr.o)
                0x020127b4                _malloc_r
 .text.__malloc_lock
                0x020128b4        0xc C:/Program Files (x86)/Arm GNU Toolchain arm-none-eabi/13.2 Rel1/bin/../lib/gcc/arm-none-eabi/13.2.1/thumb/v8-m.main+dp/hard\libg_nano.a(libc_a-mlock.o)
                0x020128b4                __malloc_lock
 .text.__malloc_unlock
                0x020128c0        0xc C:/Program Files (x86)/Arm GNU Toolchain arm-none-eabi/13.2 Rel1/bin/../lib/gcc/arm-none-eabi/13.2.1/thumb/v8-m.main+dp/hard\libg_nano.a(libc_a-mlock.o)
                0x020128c0                __malloc_unlock
 .text.memset   0x020128cc       0x10 C:/Program Files (x86)/Arm GNU Toolchain arm-none-eabi/13.2 Rel1/bin/../lib/gcc/arm-none-eabi/13.2.1/thumb/v8-m.main+dp/hard\libg_nano.a(libc_a-memset.o)
                0x020128cc                memset
 .text._sbrk_r  0x020128dc       0x20 C:/Program Files (x86)/Arm GNU Toolchain arm-none-eabi/13.2 Rel1/bin/../lib/gcc/arm-none-eabi/13.2.1/thumb/v8-m.main+dp/hard\libg_nano.a(libc_a-sbrkr.o)
                0x020128dc                _sbrk_r
 .text.__errno  0x020128fc        0xc C:/Program Files (x86)/Arm GNU Toolchain arm-none-eabi/13.2 Rel1/bin/../lib/gcc/arm-none-eabi/13.2.1/thumb/v8-m.main+dp/hard\libg_nano.a(libc_a-errno.o)
                0x020128fc                __errno
 .text.__retarget_lock_acquire_recursive
                0x02012908        0x2 C:/Program Files (x86)/Arm GNU Toolchain arm-none-eabi/13.2 Rel1/bin/../lib/gcc/arm-none-eabi/13.2.1/thumb/v8-m.main+dp/hard\libg_nano.a(libc_a-lock.o)
                0x02012908                __retarget_lock_acquire_recursive
 .text.__retarget_lock_release_recursive
                0x0201290a        0x2 C:/Program Files (x86)/Arm GNU Toolchain arm-none-eabi/13.2 Rel1/bin/../lib/gcc/arm-none-eabi/13.2.1/thumb/v8-m.main+dp/hard\libg_nano.a(libc_a-lock.o)
                0x0201290a                __retarget_lock_release_recursive
 .text.memcpy   0x0201290c       0x1a C:/Program Files (x86)/Arm GNU Toolchain arm-none-eabi/13.2 Rel1/bin/../lib/gcc/arm-none-eabi/13.2.1/thumb/v8-m.main+dp/hard\libg_nano.a(libc_a-memcpy-stub.o)
                0x0201290c                memcpy
 *fill*         0x02012926        0x2 ff
 .text._free_r  0x02012928       0x94 C:/Program Files (x86)/Arm GNU Toolchain arm-none-eabi/13.2 Rel1/bin/../lib/gcc/arm-none-eabi/13.2.1/thumb/v8-m.main+dp/hard\libg_nano.a(libc_a-freer.o)
                0x02012928                _free_r
 *(.version)
 .version       0x020129bc       0x50 ./ra/fsp/src/bsp/mcu/all/bsp_common.o
 *(.init)
 .init          0x02012a0c        0x4 C:/Program Files (x86)/Arm GNU Toolchain arm-none-eabi/13.2 Rel1/bin/../lib/gcc/arm-none-eabi/13.2.1/thumb/v8-m.main+dp/hard/crti.o
                0x02012a0c                _init
 .init          0x02012a10        0x8 C:/Program Files (x86)/Arm GNU Toolchain arm-none-eabi/13.2 Rel1/bin/../lib/gcc/arm-none-eabi/13.2.1/thumb/v8-m.main+dp/hard/crtn.o
 *(.fini)
 .fini          0x02012a18        0x4 C:/Program Files (x86)/Arm GNU Toolchain arm-none-eabi/13.2 Rel1/bin/../lib/gcc/arm-none-eabi/13.2.1/thumb/v8-m.main+dp/hard/crti.o
                0x02012a18                _fini
 .fini          0x02012a1c        0x8 C:/Program Files (x86)/Arm GNU Toolchain arm-none-eabi/13.2 Rel1/bin/../lib/gcc/arm-none-eabi/13.2.1/thumb/v8-m.main+dp/hard/crtn.o
 *crtbegin.o(.ctors)
 *crtbegin?.o(.ctors)
 *(EXCLUDE_FILE(*crtend.o *crtend?.o) .ctors)
 *(SORT_BY_NAME(.ctors.*))
 *(.ctors)
 *crtbegin.o(.dtors)
 *crtbegin?.o(.dtors)
 *(EXCLUDE_FILE(*crtend.o *crtend?.o) .dtors)
 *(SORT_BY_NAME(.dtors.*))
 *(.dtors)
 *(.rodata*)
 .rodata        0x02012a24       0x31 ./src/testbench/testbench.o
 *fill*         0x02012a55        0x3 ff
 .rodata.__func__.0
                0x02012a58        0xf ./src/testbench/testbench.o
 *fill*         0x02012a67        0x1 ff
 .rodata        0x02012a68       0x28 ./src/testbench/testbench_timers.o
 .rodata.__func__.0
                0x02012a90       0x14 ./src/testbench/testbench_timers.o
 .rodata        0x02012aa4       0x3c ./src/draw_core/draw_core.o
 .rodata.__FUNCTION__.0
                0x02012ae0        0xe ./src/draw_core/draw_core.o
 *fill*         0x02012aee        0x2 ff
 .rodata        0x02012af0        0x7 ./src/SEGGER_RTT/SEGGER_RTT_printf.o
 *fill*         0x02012af7        0x1 ff
 .rodata._aV2C.0
                0x02012af8       0x10 ./src/SEGGER_RTT/SEGGER_RTT_printf.o
 .rodata.g_lcd_init_focuslcd
                0x02012b08      0x625 ./src/MIPI/mipi.o
                0x02012b08                g_lcd_init_focuslcd
 *fill*         0x0201312d        0x3 ff
 .rodata        0x02013130       0x27 ./src/MIPI/mipi.o
 *fill*         0x02013157        0x1 ff
 .rodata.__func__.0
                0x02013158       0x14 ./src/MIPI/mipi.o
 .rodata        0x0201316c       0x27 ./src/GLCD/glcd.o
 *fill*         0x02013193        0x1 ff
 .rodata.__func__.0
                0x02013194        0xa ./src/GLCD/glcd.o
 *fill*         0x0201319e        0x2 ff
 .rodata        0x020131a0       0x88 ./src/DRW_ep.o
 .rodata.__func__.1
                0x02013228        0xa ./src/DRW_ep.o
 *fill*         0x02013232        0x2 ff
 .rodata.__FUNCTION__.0
                0x02013234        0xa ./src/DRW_ep.o
 *fill*         0x0201323e        0x2 ff
 .rodata.g_mipi_phy0_timing
                0x02013240       0x14 ./ra_gen/common_data.o
                0x02013240                g_mipi_phy0_timing
 .rodata.g_mipi_phy0_cfg
                0x02013254        0xc ./ra_gen/common_data.o
                0x02013254                g_mipi_phy0_cfg
 .rodata.g_mipi_phy0
                0x02013260        0xc ./ra_gen/common_data.o
                0x02013260                g_mipi_phy0
 .rodata.g_mipi_dsi0_timing
                0x0201326c       0x10 ./ra_gen/common_data.o
                0x0201326c                g_mipi_dsi0_timing
 .rodata.g_mipi_dsi0_extended_cfg
                0x0201327c       0x24 ./ra_gen/common_data.o
                0x0201327c                g_mipi_dsi0_extended_cfg
 .rodata.g_mipi_dsi0_cfg
                0x020132a0       0x6c ./ra_gen/common_data.o
                0x020132a0                g_mipi_dsi0_cfg
 .rodata.g_mipi_dsi0
                0x0201330c        0xc ./ra_gen/common_data.o
                0x0201330c                g_mipi_dsi0
 .rodata.g_display_extend_cfg
                0x02013318       0x10 ./ra_gen/common_data.o
                0x02013318                g_display_extend_cfg
 .rodata.g_display_cfg
                0x02013328       0x88 ./ra_gen/common_data.o
                0x02013328                g_display_cfg
 .rodata.g_display
                0x020133b0        0xc ./ra_gen/common_data.o
                0x020133b0                g_display
 .rodata.DRW_INT_IPL
                0x020133bc        0x1 ./ra_gen/common_data.o
                0x020133bc                DRW_INT_IPL
 *fill*         0x020133bd        0x3 ff
 .rodata.g_ioport
                0x020133c0        0xc ./ra_gen/common_data.o
                0x020133c0                g_ioport
 .rodata.g_timer3_extend
                0x020133cc       0x3c ./ra_gen/hal_data.o
                0x020133cc                g_timer3_extend
 .rodata.g_timer3_cfg
                0x02013408       0x20 ./ra_gen/hal_data.o
                0x02013408                g_timer3_cfg
 .rodata.g_timer3
                0x02013428        0xc ./ra_gen/hal_data.o
                0x02013428                g_timer3
 .rodata.g_timer2_extend
                0x02013434       0x3c ./ra_gen/hal_data.o
                0x02013434                g_timer2_extend
 .rodata.g_timer2_cfg
                0x02013470       0x20 ./ra_gen/hal_data.o
                0x02013470                g_timer2_cfg
 .rodata.g_timer2
                0x02013490        0xc ./ra_gen/hal_data.o
                0x02013490                g_timer2
 .rodata.g_timer1_extend
                0x0201349c       0x3c ./ra_gen/hal_data.o
                0x0201349c                g_timer1_extend
 .rodata.g_timer1_cfg
                0x020134d8       0x20 ./ra_gen/hal_data.o
                0x020134d8                g_timer1_cfg
 .rodata.g_timer1
                0x020134f8        0xc ./ra_gen/hal_data.o
                0x020134f8                g_timer1
 .rodata.g_timer0_extend
                0x02013504       0x3c ./ra_gen/hal_data.o
                0x02013504                g_timer0_extend
 .rodata.g_timer0_cfg
                0x02013540       0x20 ./ra_gen/hal_data.o
                0x02013540                g_timer0_cfg
 .rodata.g_timer0
                0x02013560        0xc ./ra_gen/hal_data.o
                0x02013560                g_timer0
 .rodata.g_printf_uart_cfg_extend
                0x0201356c       0x14 ./ra_gen/hal_data.o
                0x0201356c                g_printf_uart_cfg_extend
 .rodata.g_printf_uart_cfg
                0x02013580       0x20 ./ra_gen/hal_data.o
                0x02013580                g_printf_uart_cfg
 .rodata.g_printf_uart
                0x020135a0        0xc ./ra_gen/hal_data.o
                0x020135a0                g_printf_uart
 .rodata.g_bsp_pin_cfg_data
                0x020135ac      0x4b0 ./ra_gen/pin_data.o
                0x020135ac                g_bsp_pin_cfg_data
 .rodata.g_bsp_pin_cfg
                0x02013a5c        0xc ./ra_gen/pin_data.o
                0x02013a5c                g_bsp_pin_cfg
 .rodata.g_interrupt_event_link_select
                0x02013a68       0xc0 ./ra_gen/vector_data.o
                0x02013a68                g_interrupt_event_link_select
 .rodata.d2_cacheableregs
                0x02013b28       0x3b ./ra/tes/dave2d/src/dave_driver.o
                0x02013b28                d2_cacheableregs
 *fill*         0x02013b63        0x1 ff
 .rodata        0x02013b64      0x430 ./ra/tes/dave2d/src/dave_errorcodes.o
 .rodata.g_errorcodes.0
                0x02013f94       0x5c ./ra/tes/dave2d/src/dave_errorcodes.o
 .rodata.g_uart_on_sci_b
                0x02013ff0       0x24 ./ra/fsp/src/r_sci_b_uart/r_sci_b_uart.o
                0x02013ff0                g_uart_on_sci_b
 .rodata        0x02014014      0x13c ./ra/fsp/src/r_sci_b_uart/r_sci_b_uart.o
 .rodata.__func__.8
                0x02014150       0x12 ./ra/fsp/src/r_sci_b_uart/r_sci_b_uart.o
 *fill*         0x02014162        0x2 ff
 .rodata.__func__.7
                0x02014164       0x13 ./ra/fsp/src/r_sci_b_uart/r_sci_b_uart.o
 *fill*         0x02014177        0x1 ff
 .rodata.__func__.6
                0x02014178       0x19 ./ra/fsp/src/r_sci_b_uart/r_sci_b_uart.o
 *fill*         0x02014191        0x3 ff
 .rodata.__func__.5
                0x02014194       0x15 ./ra/fsp/src/r_sci_b_uart/r_sci_b_uart.o
 *fill*         0x020141a9        0x3 ff
 .rodata.__func__.4
                0x020141ac       0x15 ./ra/fsp/src/r_sci_b_uart/r_sci_b_uart.o
 *fill*         0x020141c1        0x3 ff
 .rodata.__func__.3
                0x020141c4       0x13 ./ra/fsp/src/r_sci_b_uart/r_sci_b_uart.o
 *fill*         0x020141d7        0x1 ff
 .rodata.__func__.2
                0x020141d8       0x16 ./ra/fsp/src/r_sci_b_uart/r_sci_b_uart.o
 *fill*         0x020141ee        0x2 ff
 .rodata.__func__.0
                0x020141f0       0x1f ./ra/fsp/src/r_sci_b_uart/r_sci_b_uart.o
 *fill*         0x0201420f        0x1 ff
 .rodata.g_mipi_phy
                0x02014210        0x8 ./ra/fsp/src/r_mipi_phy/r_mipi_phy.o
                0x02014210                g_mipi_phy
 .rodata.g_mipi_dsi
                0x02014218       0x20 ./ra/fsp/src/r_mipi_dsi/r_mipi_dsi.o
                0x02014218                g_mipi_dsi
 .rodata        0x02014238       0x78 ./ra/fsp/src/r_mipi_dsi/r_mipi_dsi.o
 .rodata.__func__.7
                0x020142b0       0x10 ./ra/fsp/src/r_mipi_dsi/r_mipi_dsi.o
 .rodata.__func__.6
                0x020142c0       0x11 ./ra/fsp/src/r_mipi_dsi/r_mipi_dsi.o
 *fill*         0x020142d1        0x3 ff
 .rodata.__func__.5
                0x020142d4       0x11 ./ra/fsp/src/r_mipi_dsi/r_mipi_dsi.o
 *fill*         0x020142e5        0x3 ff
 .rodata.__func__.4
                0x020142e8       0x10 ./ra/fsp/src/r_mipi_dsi/r_mipi_dsi.o
 .rodata.__func__.3
                0x020142f8       0x15 ./ra/fsp/src/r_mipi_dsi/r_mipi_dsi.o
 *fill*         0x0201430d        0x3 ff
 .rodata.__func__.2
                0x02014310       0x14 ./ra/fsp/src/r_mipi_dsi/r_mipi_dsi.o
 .rodata.__func__.1
                0x02014324       0x13 ./ra/fsp/src/r_mipi_dsi/r_mipi_dsi.o
 *fill*         0x02014337        0x1 ff
 .rodata.__func__.0
                0x02014338       0x15 ./ra/fsp/src/r_mipi_dsi/r_mipi_dsi.o
 *fill*         0x0201434d        0x3 ff
 .rodata.g_ioport_on_ioport
                0x02014350       0x34 ./ra/fsp/src/r_ioport/r_ioport.o
                0x02014350                g_ioport_on_ioport
 .rodata.g_vbatt_pins_input
                0x02014384        0x6 ./ra/fsp/src/r_ioport/r_ioport.o
 *fill*         0x0201438a        0x2 ff
 .rodata        0x0201438c      0x137 ./ra/fsp/src/r_ioport/r_ioport.o
 *fill*         0x020144c3        0x1 ff
 .rodata.__func__.12
                0x020144c4        0xe ./ra/fsp/src/r_ioport/r_ioport.o
 *fill*         0x020144d2        0x2 ff
 .rodata.__func__.11
                0x020144d4        0xf ./ra/fsp/src/r_ioport/r_ioport.o
 *fill*         0x020144e3        0x1 ff
 .rodata.__func__.10
                0x020144e4       0x11 ./ra/fsp/src/r_ioport/r_ioport.o
 *fill*         0x020144f5        0x3 ff
 .rodata.__func__.9
                0x020144f8       0x10 ./ra/fsp/src/r_ioport/r_ioport.o
 .rodata.__func__.8
                0x02014508       0x11 ./ra/fsp/src/r_ioport/r_ioport.o
 *fill*         0x02014519        0x3 ff
 .rodata.__func__.7
                0x0201451c       0x12 ./ra/fsp/src/r_ioport/r_ioport.o
 *fill*         0x0201452e        0x2 ff
 .rodata.__func__.6
                0x02014530       0x13 ./ra/fsp/src/r_ioport/r_ioport.o
 *fill*         0x02014543        0x1 ff
 .rodata.__func__.5
                0x02014544       0x12 ./ra/fsp/src/r_ioport/r_ioport.o
 *fill*         0x02014556        0x2 ff
 .rodata.__func__.4
                0x02014558       0x1a ./ra/fsp/src/r_ioport/r_ioport.o
 *fill*         0x02014572        0x2 ff
 .rodata.__func__.3
                0x02014574       0x1c ./ra/fsp/src/r_ioport/r_ioport.o
 .rodata.__func__.2
                0x02014590       0x1b ./ra/fsp/src/r_ioport/r_ioport.o
 *fill*         0x020145ab        0x1 ff
 .rodata.__func__.1
                0x020145ac       0x1e ./ra/fsp/src/r_ioport/r_ioport.o
 *fill*         0x020145ca        0x2 ff
 .rodata.__func__.0
                0x020145cc       0x1d ./ra/fsp/src/r_ioport/r_ioport.o
 *fill*         0x020145e9        0x3 ff
 .rodata.g_timer_on_gpt
                0x020145ec       0x34 ./ra/fsp/src/r_gpt/r_gpt.o
                0x020145ec                g_timer_on_gpt
 .rodata        0x02014620      0x10b ./ra/fsp/src/r_gpt/r_gpt.o
 *fill*         0x0201472b        0x1 ff
 .rodata.__func__.15
                0x0201472c        0xb ./ra/fsp/src/r_gpt/r_gpt.o
 *fill*         0x02014737        0x1 ff
 .rodata.__func__.14
                0x02014738        0xb ./ra/fsp/src/r_gpt/r_gpt.o
 *fill*         0x02014743        0x1 ff
 .rodata.__func__.13
                0x02014744        0xc ./ra/fsp/src/r_gpt/r_gpt.o
 .rodata.__func__.12
                0x02014750        0xc ./ra/fsp/src/r_gpt/r_gpt.o
 .rodata.__func__.11
                0x0201475c        0xd ./ra/fsp/src/r_gpt/r_gpt.o
 *fill*         0x02014769        0x3 ff
 .rodata.__func__.10
                0x0201476c        0xe ./ra/fsp/src/r_gpt/r_gpt.o
 *fill*         0x0201477a        0x2 ff
 .rodata.__func__.9
                0x0201477c       0x10 ./ra/fsp/src/r_gpt/r_gpt.o
 .rodata.__func__.8
                0x0201478c       0x16 ./ra/fsp/src/r_gpt/r_gpt.o
 *fill*         0x020147a2        0x2 ff
 .rodata.__func__.7
                0x020147a4        0xe ./ra/fsp/src/r_gpt/r_gpt.o
 *fill*         0x020147b2        0x2 ff
 .rodata.__func__.6
                0x020147b4       0x10 ./ra/fsp/src/r_gpt/r_gpt.o
 .rodata.__func__.1
                0x020147c4       0x12 ./ra/fsp/src/r_gpt/r_gpt.o
 *fill*         0x020147d6        0x2 ff
 .rodata.__func__.0
                0x020147d8        0xc ./ra/fsp/src/r_gpt/r_gpt.o
 .rodata.g_display_on_glcdc
                0x020147e4       0x2c ./ra/fsp/src/r_glcdc/r_glcdc.o
                0x020147e4                g_display_on_glcdc
 .rodata        0x02014810       0x58 ./ra/fsp/src/r_glcdc/r_glcdc.o
 .rodata.__func__.10
                0x02014868        0xd ./ra/fsp/src/r_glcdc/r_glcdc.o
 *fill*         0x02014875        0x3 ff
 .rodata.__func__.9
                0x02014878        0xe ./ra/fsp/src/r_glcdc/r_glcdc.o
 *fill*         0x02014886        0x2 ff
 .rodata.__func__.8
                0x02014888        0xe ./ra/fsp/src/r_glcdc/r_glcdc.o
 *fill*         0x02014896        0x2 ff
 .rodata.__func__.7
                0x02014898        0xd ./ra/fsp/src/r_glcdc/r_glcdc.o
 *fill*         0x020148a5        0x3 ff
 .rodata.__func__.6
                0x020148a8       0x14 ./ra/fsp/src/r_glcdc/r_glcdc.o
 .rodata.__func__.5
                0x020148bc       0x15 ./ra/fsp/src/r_glcdc/r_glcdc.o
 *fill*         0x020148d1        0x3 ff
 .rodata.__func__.4
                0x020148d4       0x13 ./ra/fsp/src/r_glcdc/r_glcdc.o
 *fill*         0x020148e7        0x1 ff
 .rodata.__func__.3
                0x020148e8       0x11 ./ra/fsp/src/r_glcdc/r_glcdc.o
 *fill*         0x020148f9        0x3 ff
 .rodata.__func__.1
                0x020148fc       0x12 ./ra/fsp/src/r_glcdc/r_glcdc.o
 *fill*         0x0201490e        0x2 ff
 .rodata.__func__.0
                0x02014910       0x19 ./ra/fsp/src/r_glcdc/r_glcdc.o
 *fill*         0x02014929        0x3 ff
 .rodata        0x0201492c       0x43 ./ra/fsp/src/bsp/mcu/all/bsp_common.o
 *fill*         0x0201496f        0x1 ff
 .rodata.__func__.0
                0x02014970       0x11 ./ra/fsp/src/bsp/mcu/all/bsp_common.o
 *fill*         0x02014981        0x3 ff
 .rodata.g_prcr_masks
                0x02014984        0x8 ./ra/fsp/src/bsp/mcu/all/bsp_register_protection.o
 .rodata.g_bsp_prv_leds
                0x0201498c        0x6 ./ra/board/ra8d1_ek/board_leds.o
 *fill*         0x02014992        0x2 ff
 .rodata.g_bsp_leds
                0x02014994        0x8 ./ra/board/ra8d1_ek/board_leds.o
                0x02014994                g_bsp_leds
                0x0201499c                        __usb_dev_descriptor_start_fs = .
 *(.usb_device_desc_fs*)
                0x0201499c                        __usb_cfg_descriptor_start_fs = .
 *(.usb_config_desc_fs*)
                0x0201499c                        __usb_interface_descriptor_start_fs = .
 *(.usb_interface_desc_fs*)
                0x0201499c                        __usb_descriptor_end_fs = .
                0x0201499c                        __usb_dev_descriptor_start_hs = .
 *(.usb_device_desc_hs*)
                0x0201499c                        __usb_cfg_descriptor_start_hs = .
 *(.usb_config_desc_hs*)
                0x0201499c                        __usb_interface_descriptor_start_hs = .
 *(.usb_interface_desc_hs*)
                0x0201499c                        __usb_descriptor_end_hs = .
 *(.eh_frame*)
 .eh_frame      0x0201499c        0x0 C:/Program Files (x86)/Arm GNU Toolchain arm-none-eabi/13.2 Rel1/bin/../lib/gcc/arm-none-eabi/13.2.1/thumb/v8-m.main+dp/hard/crtbegin.o
 .eh_frame      0x0201499c       0x28 C:/Program Files (x86)/Arm GNU Toolchain arm-none-eabi/13.2 Rel1/bin/../lib/gcc/arm-none-eabi/13.2.1/thumb/v8-m.main+dp/hard\libg_nano.a(libc_a-strlen.o)
 .eh_frame      0x020149c4        0x4 C:/Program Files (x86)/Arm GNU Toolchain arm-none-eabi/13.2 Rel1/bin/../lib/gcc/arm-none-eabi/13.2.1/thumb/v8-m.main+dp/hard/crtend.o
                0x020149c8                        __ROM_End = .
                0x000001c0                        __Vectors_Size = (__Vectors_End - __Vectors)

.glue_7         0x020149c8        0x0
 .glue_7        0x020149c8        0x0 linker stubs

.glue_7t        0x020149c8        0x0
 .glue_7t       0x020149c8        0x0 linker stubs

.vfp11_veneer   0x020149c8        0x0
 .vfp11_veneer  0x020149c8        0x0 linker stubs

.v4_bx          0x020149c8        0x0
 .v4_bx         0x020149c8        0x0 linker stubs

.iplt           0x020149c8        0x0
 .iplt          0x020149c8        0x0 C:/Program Files (x86)/Arm GNU Toolchain arm-none-eabi/13.2 Rel1/bin/../lib/gcc/arm-none-eabi/13.2.1/thumb/v8-m.main+dp/hard/crtbegin.o
                0x020149c8                        . = .
                0x020149c8                        __itcm_data_pre_location = .

.itcm_data      0x00000000        0x0 load address 0x020149d0
                0x00000000                        __tz_ITCM_S = ABSOLUTE (ITCM_START)
                0x00000000                        __itcm_data_start = .
 *(.itcm_data*)
                0x00000000                        . = ALIGN (0x8)
                0x00000000                        __itcm_data_end = .
                0x00000000                        __tz_ITCM_N = DEFINED (ITCM_NS_START)?ABSOLUTE (ITCM_NS_START):ALIGN (__itcm_data_end, 0x2000)
                0x020149d0                        __itcm_data_init_start = LOADADDR (.itcm_data)
                0x020149d0                        __itcm_data_init_end = (LOADADDR (.itcm_data) + SIZEOF (.itcm_data))
                0x00000001                        ASSERT (((ORIGIN (ITCM) % 0x8) == 0x0), ITCM memory region origin must be aligned to 8 bytes.)
                0x00000001                        ASSERT (((LENGTH (ITCM) % 0x8) == 0x0), ITCM memory region length must be a multiple of 8 bytes.)
                0x00000001                        ASSERT (((LOADADDR (.itcm_data) % 0x10) == 0x0), .itcm_data section must be aligned to 16 bytes.)
                0x00000001                        ASSERT (((SIZEOF (.itcm_data) % 0x8) == 0x0), .itcm_data section size must be a multiple of 8 bytes.)
                0x020149c8                        . = (SIZEOF (.itcm_data) > 0x0)?__itcm_data_init_end:__itcm_data_pre_location
                0x020149c8                        __exidx_start = .

/DISCARD/
 *(.ARM.extab* .gnu.linkonce.armextab.*)
 *(.ARM.exidx* .gnu.linkonce.armexidx.*)
                0x020149c8                        __exidx_end = .
                0x020149c8                        __etext = .
                0x22000000                        __tz_RAM_S = ORIGIN (RAM)

.fsp_dtc_vector_table
                0x22000000        0x0
                0x22000000                        . = ORIGIN (RAM)
 *(.fsp_dtc_vector_table)

.data           0x22000000      0x170 load address 0x020149c8
                0x22000000                        __data_start__ = .
                0x22000000                        . = ALIGN (0x4)
                0x22000000                        __Code_In_RAM_Start = .
 *(.code_in_ram*)
                0x22000000                        __Code_In_RAM_End = .
 *(vtable)
 *(.data.*)
 .data.TB       0x22000000       0x40 ./src/testbench/testbench.o
                0x22000000                TB
 .data.Points   0x22000040       0x18 ./src/draw_core/draw_core.o
                0x22000040                Points
 .data.Deltas   0x22000058       0x18 ./src/draw_core/draw_core.o
                0x22000058                Deltas
 .data.Poly     0x22000070        0xc ./src/draw_core/draw_core.o
                0x22000070                Poly
 .data.g_c_c_y1
                0x2200007c        0x2 ./src/draw_core/draw_core.o
 .data.g_c_left_flag
                0x2200007e        0x1 ./src/draw_core/draw_core.o
 *fill*         0x2200007f        0x1 
 .data.g_t_x1   0x22000080        0x2 ./src/draw_core/draw_core.o
 .data.g_t_y1   0x22000082        0x2 ./src/draw_core/draw_core.o
 .data.g_t_x2   0x22000084        0x2 ./src/draw_core/draw_core.o
 .data.g_t_y2   0x22000086        0x2 ./src/draw_core/draw_core.o
 .data.g_t_x3   0x22000088        0x2 ./src/draw_core/draw_core.o
 .data.g_t_y3   0x2200008a        0x2 ./src/draw_core/draw_core.o
 .data.g_t_top_flag
                0x2200008c        0x1 ./src/draw_core/draw_core.o
 *fill*         0x2200008d        0x1 
 .data.g_b_x1   0x2200008e        0x2 ./src/draw_core/draw_core.o
 .data.g_b_y1   0x22000090        0x2 ./src/draw_core/draw_core.o
 .data.g_b_l    0x22000092        0x2 ./src/draw_core/draw_core.o
 .data.g_b_w    0x22000094        0x2 ./src/draw_core/draw_core.o
 .data.g_p_bottom_flag
                0x22000096        0x1 ./src/draw_core/draw_core.o
 *fill*         0x22000097        0x1 
 .data.g_l_x1   0x22000098        0x2 ./src/draw_core/draw_core.o
 .data.g_l_y1   0x2200009a        0x2 ./src/draw_core/draw_core.o
 .data.g_l_x2   0x2200009c        0x2 ./src/draw_core/draw_core.o
 .data.g_l_y2   0x2200009e        0x2 ./src/draw_core/draw_core.o
 .data.g_l_w    0x220000a0        0x2 ./src/draw_core/draw_core.o
 .data.g_l_right_flag
                0x220000a2        0x1 ./src/draw_core/draw_core.o
 *fill*         0x220000a3        0x1 
 .data.Gvar     0x220000a4       0x18 ./src/DRW_ep.o
                0x220000a4                Gvar
 .data.DP       0x220000bc       0x1c ./src/DRW_ep.o
                0x220000bc                DP
 .data.g_printf_uart_baud_setting
                0x220000d8        0x4 ./ra_gen/hal_data.o
                0x220000d8                g_printf_uart_baud_setting
 .data.g_clut_data_latched
                0x220000dc        0x2 ./ra/fsp/src/r_glcdc/r_glcdc.o
 *fill*         0x220000de        0x2 
 .data.g_tcon_lut
                0x220000e0       0x10 ./ra/fsp/src/r_glcdc/r_glcdc.o
 .data.g_format_lut
                0x220000f0        0x8 ./ra/fsp/src/r_glcdc/r_glcdc.o
 .data.g_pixsize_lut
                0x220000f8       0x10 ./ra/fsp/src/r_glcdc/r_glcdc.o
 .data.g_outset_lut
                0x22000108        0x4 ./ra/fsp/src/r_glcdc/r_glcdc.o
 .data.g_pdtha_lut
                0x2200010c        0x4 ./ra/fsp/src/r_glcdc/r_glcdc.o
 .data.clut_hw.2
                0x22000110        0x8 ./ra/fsp/src/r_glcdc/r_glcdc.o
 .data._impure_ptr
                0x22000118        0x4 C:/Program Files (x86)/Arm GNU Toolchain arm-none-eabi/13.2 Rel1/bin/../lib/gcc/arm-none-eabi/13.2.1/thumb/v8-m.main+dp/hard\libg_nano.a(libc_a-impure.o)
                0x22000118                _impure_ptr
 .data._impure_data
                0x2200011c       0x4c C:/Program Files (x86)/Arm GNU Toolchain arm-none-eabi/13.2 Rel1/bin/../lib/gcc/arm-none-eabi/13.2.1/thumb/v8-m.main+dp/hard\libg_nano.a(libc_a-impure.o)
                0x2200011c                _impure_data
 *(.data)
                0x22000168                        . = ALIGN (0x4)
                0x22000168                        PROVIDE (__preinit_array_start = .)
 *(.preinit_array)
                0x22000168                        PROVIDE (__preinit_array_end = .)
                0x22000168                        . = ALIGN (0x4)
                0x22000168                        PROVIDE (__init_array_start = .)
 *(SORT_BY_NAME(.init_array.*))
 *(.init_array)
 .init_array    0x22000168        0x4 C:/Program Files (x86)/Arm GNU Toolchain arm-none-eabi/13.2 Rel1/bin/../lib/gcc/arm-none-eabi/13.2.1/thumb/v8-m.main+dp/hard/crtbegin.o
                0x2200016c                        PROVIDE (__init_array_end = .)
                0x2200016c                        . = ALIGN (0x4)
                [!provide]                        PROVIDE (__fini_array_start = .)
 *(SORT_BY_NAME(.fini_array.*))
 *(.fini_array)
 .fini_array    0x2200016c        0x4 C:/Program Files (x86)/Arm GNU Toolchain arm-none-eabi/13.2 Rel1/bin/../lib/gcc/arm-none-eabi/13.2.1/thumb/v8-m.main+dp/hard/crtbegin.o
                [!provide]                        PROVIDE (__fini_array_end = .)
 *(.jcr*)
                0x22000170                        . = ALIGN (0x4)
                0x22000170                        __data_end__ = .

.tm_clone_table
                0x22000170        0x0 load address 0x02014b38
 .tm_clone_table
                0x22000170        0x0 C:/Program Files (x86)/Arm GNU Toolchain arm-none-eabi/13.2 Rel1/bin/../lib/gcc/arm-none-eabi/13.2.1/thumb/v8-m.main+dp/hard/crtbegin.o
 .tm_clone_table
                0x22000170        0x0 C:/Program Files (x86)/Arm GNU Toolchain arm-none-eabi/13.2 Rel1/bin/../lib/gcc/arm-none-eabi/13.2.1/thumb/v8-m.main+dp/hard/crtend.o

.igot.plt       0x22000170        0x0 load address 0x02014b38
 .igot.plt      0x22000170        0x0 C:/Program Files (x86)/Arm GNU Toolchain arm-none-eabi/13.2 Rel1/bin/../lib/gcc/arm-none-eabi/13.2.1/thumb/v8-m.main+dp/hard/crtbegin.o
                0x22000170                        . = .
                0x02014b38                        __dtcm_data_pre_location = (LOADADDR (.data) + SIZEOF (.data))

.dtcm_data      0x20000000        0x0 load address 0x02014b40
                0x20000000                        __tz_DTCM_S = ABSOLUTE (DTCM_START)
                0x20000000                        __dtcm_data_start = .
 *(.dtcm_data*)
                0x20000000                        . = ALIGN (0x8)
                0x20000000                        __dtcm_data_end = .
                0x20000000                        . = __dtcm_data_end

.dtcm_bss       0x20000000        0x0
                0x20000000                        __dtcm_bss_start = .
 *(.dtcm_bss*)
                0x20000000                        . = ALIGN (0x8)
                0x20000000                        __dtcm_bss_end = .
                0x20000000                        __tz_DTCM_N = DEFINED (DTCM_NS_START)?ABSOLUTE (DTCM_NS_START):ALIGN (__dtcm_bss_end, 0x2000)
                0x02014b40                        __dtcm_data_init_start = LOADADDR (.dtcm_data)
                0x02014b40                        __dtcm_data_init_end = (LOADADDR (.dtcm_data) + SIZEOF (.dtcm_data))
                0x00000001                        ASSERT (((ORIGIN (DTCM) % 0x8) == 0x0), DTCM memory region origin must be aligned to 8 bytes.)
                0x00000001                        ASSERT (((LENGTH (DTCM) % 0x8) == 0x0), DTCM memory region length must be a multiple of 8 bytes.)
                0x00000001                        ASSERT ((LOADADDR (.dtcm_bss) == ADDR (.dtcm_bss)), .dtcm_bss has (VMA != LMA) but should be NOLOAD (VMA == LMA).)
                0x00000001                        ASSERT (((LOADADDR (.dtcm_data) % 0x10) == 0x0), .dtcm_data section must be aligned to 16 bytes.)
                0x00000001                        ASSERT (((SIZEOF (.dtcm_data) % 0x8) == 0x0), .dtcm_data section size must be a multiple of 8 bytes.)
                0x00000001                        ASSERT (((LOADADDR (.dtcm_bss) % 0x8) == 0x0), .dtcm_bss section must be aligned to 8 bytes.)
                0x00000001                        ASSERT (((SIZEOF (.dtcm_bss) % 0x8) == 0x0), .dtcm_bss section size must be a multiple of 8 bytes.)
                0x00000001                        ASSERT ((__dtcm_bss_start == __dtcm_data_end), .dtcm_bss section is not adjacent to .dtcm_data section.)
                0x02014b38                        . = (SIZEOF (.dtcm_data) > 0x0)?__dtcm_data_init_end:__dtcm_data_pre_location
                0x02014b38                        sgstubs_pre_location = .
                0x02014c00                        SGSTUBS_LOC = (DEFINED (PROJECT_SECURE) && DEFINED (FLASH_NSC_START))?ABSOLUTE (FLASH_NSC_START):ALIGN (0x400)

.gnu.sgstubs    0x02014c00        0x0
                0x02014c00                        __FLASH_NSC_START = DEFINED (FLASH_NSC_START)?ABSOLUTE (FLASH_NSC_START):__RESERVE_NS_RAM?ABSOLUTE ((FLASH_START + FLASH_LENGTH)):ALIGN (0x400)
                0x02014c00                        _start_sg = .
 *(.gnu.sgstubs*)
                0x02014c00                        . = ALIGN (0x20)
                0x02014c00                        _end_sg = .
                0x02018000                        __tz_FLASH_N = DEFINED (FLASH_NS_START)?ABSOLUTE (FLASH_NS_START):__RESERVE_NS_RAM?ABSOLUTE ((FLASH_START + FLASH_LENGTH)):(FLASH_LENGTH < 0x8000)?FLASH_LENGTH:ALIGN (0x8000)
                0x02018000                        FLASH_NS_IMAGE_START = DEFINED (FLASH_NS_IMAGE_START)?FLASH_NS_IMAGE_START:__tz_FLASH_N
                0x60000000                        __tz_QSPI_FLASH_S = ORIGIN (QSPI_FLASH)

.qspi_flash     0x60000000        0x0
                0x60000000                        __qspi_flash_start__ = .
 *(.qspi_flash*)
 *(.code_in_qspi*)
                0x60000000                        __qspi_flash_end__ = .
                0x00000000                        __qspi_flash_code_size__ = (__qspi_flash_end__ - __qspi_flash_start__)
                0x02014b38                        __qspi_flash_code_addr__ = sgstubs_pre_location

.qspi_non_retentive
                0x60000000        0x0 load address 0x02014b38
                0x60000000                        __qspi_non_retentive_start__ = .
 *(.qspi_non_retentive*)
                0x60000000                        __qspi_non_retentive_end__ = .
                0x00000000                        __qspi_non_retentive_size__ = (__qspi_non_retentive_end__ - __qspi_non_retentive_start__)
                0x04000000                        __qspi_region_max_size__ = 0x4000000
                0x60000000                        __qspi_region_start_address__ = __qspi_flash_start__
                0x64000000                        __qspi_region_end_address__ = (__qspi_flash_start__ + __qspi_region_max_size__)
                0x60000000                        __tz_QSPI_FLASH_N = __qspi_non_retentive_end__

.OSPI_DEVICE_0_NO_LOAD
                0x80000000        0x0
                0x80000000                        . = ALIGN (0x4)
                0x80000000                        __ospi_device_0_start__ = .
 *(.ospi_device_0_no_load*)
                0x80000000                        . = ALIGN (0x4)
                0x80000000                        __ospi_device_0_end__ = .

.OSPI_DEVICE_1_NO_LOAD
                0x90000000        0x0
                0x90000000                        . = ALIGN (0x4)
                0x90000000                        __ospi_device_1_start__ = .
 *(.ospi_device_1_no_load*)
                0x90000000                        . = ALIGN (0x4)
                0x90000000                        __ospi_device_1_end__ = .
                0x80000000                        __tz_OSPI_DEVICE_0_S = ORIGIN (OSPI_DEVICE_0)

.OSPI_DEVICE_0  0x80000000        0x0
                0x80000000                        __ospi_device_0_start__ = .
 *(.ospi_device_0*)
 *(.code_in_ospi_device_0*)
                0x80000000                        __ospi_device_0_end__ = .
                0x00000000                        __ospi_device_0_code_size__ = (__ospi_device_0_end__ - __ospi_device_0_start__)
                0x02014b38                        __ospi_device_0_code_addr__ = (sgstubs_pre_location + SIZEOF (.qspi_non_retentive))

.ospi_device_0_non_retentive
                0x80000000        0x0 load address 0x02014b38
                0x80000000                        __ospi_device_0_non_retentive_start__ = .
 *(.ospi_device_0_non_retentive*)
                0x80000000                        __ospi_device_0_non_retentive_end__ = .
                0x00000000                        __ospi_device_0_non_retentive_size__ = (__ospi_device_0_non_retentive_end__ - __ospi_device_0_non_retentive_start__)
                0x08000000                        __ospi_device_0_region_max_size__ = 0x8000000
                0x80000000                        __ospi_device_0_region_start_address__ = __ospi_device_0_start__
                0x88000000                        __ospi_device_0_region_end_address__ = (__ospi_device_0_start__ + __ospi_device_0_region_max_size__)
                0x80000000                        __tz_OSPI_DEVICE_0_N = __ospi_device_0_non_retentive_end__
                0x90000000                        __tz_OSPI_DEVICE_1_S = ORIGIN (OSPI_DEVICE_1)

.OSPI_DEVICE_1  0x90000000        0x0
                0x90000000                        __ospi_device_1_start__ = .
 *(.ospi_device_1*)
 *(.code_in_ospi_device_1*)
                0x90000000                        __ospi_device_1_end__ = .
                0x00000000                        __ospi_device_1_code_size__ = (__ospi_device_1_end__ - __ospi_device_1_start__)
                0x02014b38                        __ospi_device_1_code_addr__ = (sgstubs_pre_location + (SIZEOF (.qspi_non_retentive) + SIZEOF (.ospi_device_0_non_retentive)))

.ospi_device_1_non_retentive
                0x90000000        0x0 load address 0x02014b38
                0x90000000                        __ospi_device_1_non_retentive_start__ = .
 *(.ospi_device_1_non_retentive*)
                0x90000000                        __ospi_device_1_non_retentive_end__ = .
                0x00000000                        __ospi_device_1_non_retentive_size__ = (__ospi_device_1_non_retentive_end__ - __ospi_device_1_non_retentive_start__)
                0x10000000                        __ospi_device_1_region_max_size__ = 0x10000000
                0x90000000                        __ospi_device_1_region_start_address__ = __ospi_device_1_start__
                0xa0000000                        __ospi_device_1_region_end_address__ = (__ospi_device_1_start__ + __ospi_device_1_region_max_size__)
                0x90000000                        __tz_OSPI_DEVICE_1_N = __ospi_device_1_non_retentive_end__

.noinit         0x22000170       0x30
                0x22000170                        . = ALIGN (0x4)
                0x22000170                        __noinit_start = .
 *(.noinit*)
 .noinit        0x22000170       0x2c ./ra/fsp/src/bsp/mcu/all/bsp_clocks.o
                0x220001a0                        . = ALIGN (0x8)
 *fill*         0x2200019c        0x4 
 *(.heap.*)
                0x220001a0                        __noinit_end = .
                0x220001a0                        . = .
                0x220001a0                        __nocache_pre_location = .

.nocache        0x220001a0        0x0
                0x220001a0                        __nocache_start = .
 *(.nocache)
                0x220001a0                        . = ALIGN (0x20)
                0x220001a0                        __nocache_end = .
                0x220001a0                        . = (SIZEOF (.nocache) > 0x0)?__nocache_end:__nocache_pre_location

.bss            0x220001a0     0x34a8
                0x220001a0                        . = ALIGN (0x4)
                0x220001a0                        __bss_start__ = .
 *(.bss*)
 .bss.completed.1
                0x220001a0        0x1 C:/Program Files (x86)/Arm GNU Toolchain arm-none-eabi/13.2 Rel1/bin/../lib/gcc/arm-none-eabi/13.2.1/thumb/v8-m.main+dp/hard/crtbegin.o
 *fill*         0x220001a1        0x3 
 .bss.object.0  0x220001a4       0x18 C:/Program Files (x86)/Arm GNU Toolchain arm-none-eabi/13.2 Rel1/bin/../lib/gcc/arm-none-eabi/13.2.1/thumb/v8-m.main+dp/hard/crtbegin.o
 .bss.AnimateBuffer
                0x220001bc     0x1000 ./src/testbench/testbench.o
                0x220001bc                AnimateBuffer
 .bss.RenderBuffer
                0x220011bc     0x1000 ./src/testbench/testbench.o
                0x220011bc                RenderBuffer
 .bss.VSYNCBuffer
                0x220021bc     0x1000 ./src/testbench/testbench.o
                0x220021bc                VSYNCBuffer
 .bss.timer0_cb_args
                0x220031bc        0xc ./src/testbench/testbench.o
                0x220031bc                timer0_cb_args
 .bss.gp_davey  0x220031c8        0x4 ./src/draw_core/draw_core.o
                0x220031c8                gp_davey
 .bss.DRW_err   0x220031cc        0x4 ./src/draw_core/draw_core.o
                0x220031cc                DRW_err
 .bss.g_c_right_flag
                0x220031d0        0x1 ./src/draw_core/draw_core.o
 .bss.g_t_bottom_flag
                0x220031d1        0x1 ./src/draw_core/draw_core.o
 .bss.g_p_top_flag
                0x220031d2        0x1 ./src/draw_core/draw_core.o
 .bss.g_l_left_flag
                0x220031d3        0x1 ./src/draw_core/draw_core.o
 .bss.uart_args
                0x220031d4       0x10 ./src/SCI_RTT/SCI_RTT.o
 .bss.sci       0x220031e4        0x4 ./src/SCI_RTT/SCI_RTT.o
 .bss.sci_flags
                0x220031e8        0x4 ./src/SCI_RTT/SCI_RTT.o
 .bss.sci_rxchar
                0x220031ec        0x1 ./src/SCI_RTT/SCI_RTT.o
 *fill*         0x220031ed        0x3 
 .bss.sci_rxbuffer
                0x220031f0       0x20 ./src/SCI_RTT/SCI_RTT.o
 .bss.sci_rxidx
                0x22003210        0x2 ./src/SCI_RTT/SCI_RTT.o
 .bss.g_message_sent
                0x22003212        0x1 ./src/MIPI/mipi.o
                0x22003212                g_message_sent
 *fill*         0x22003213        0x1 
 .bss.tommy     0x22003214        0x4 ./src/DRW_ep.o
                0x22003214                tommy
 .bss.g_mipi_phy0_ctrl
                0x22003218        0x8 ./ra_gen/common_data.o
                0x22003218                g_mipi_phy0_ctrl
 .bss.g_mipi_dsi0_ctrl
                0x22003220       0x18 ./ra_gen/common_data.o
                0x22003220                g_mipi_dsi0_ctrl
 .bss.g_display_ctrl
                0x22003238       0x10 ./ra_gen/common_data.o
                0x22003238                g_display_ctrl
 .bss.g_ioport_ctrl
                0x22003248        0x8 ./ra_gen/common_data.o
                0x22003248                g_ioport_ctrl
 .bss.g_timer3_ctrl
                0x22003250       0x20 ./ra_gen/hal_data.o
                0x22003250                g_timer3_ctrl
 .bss.g_timer2_ctrl
                0x22003270       0x20 ./ra_gen/hal_data.o
                0x22003270                g_timer2_ctrl
 .bss.g_timer1_ctrl
                0x22003290       0x20 ./ra_gen/hal_data.o
                0x22003290                g_timer1_ctrl
 .bss.g_timer0_ctrl
                0x220032b0       0x20 ./ra_gen/hal_data.o
                0x220032b0                g_timer0_ctrl
 .bss.g_printf_uart_ctrl
                0x220032d0       0x30 ./ra_gen/hal_data.o
                0x220032d0                g_printf_uart_ctrl
 .bss.g_devicechain
                0x22003300        0x4 ./ra/tes/dave2d/src/dave_driver.o
 .bss.g_clock_state
                0x22003304        0x1 ./ra/fsp/src/r_mipi_dsi/r_mipi_dsi.o
 .bss.g_video_started
                0x22003305        0x1 ./ra/fsp/src/r_mipi_dsi/r_mipi_dsi.o
 *fill*         0x22003306        0x2 
 .bss.g_ctrl_blk
                0x22003308        0xc ./ra/fsp/src/r_glcdc/r_glcdc.o
 .bss.g_fade_pending
                0x22003314        0x8 ./ra/fsp/src/r_glcdc/r_glcdc.o
 .bss.g_frame_ctr
                0x2200331c        0x4 ./ra/fsp/src/r_glcdc/r_glcdc.o
 .bss.device_d2d
                0x22003320        0x8 ./ra/fsp/src/r_drw/r_drw_base.o
 .bss.g_dlist_done
                0x22003328        0x4 ./ra/fsp/src/r_drw/r_drw_irq.o
 .bss.g_bsp_group_irq_sources
                0x2200332c       0x40 ./ra/fsp/src/bsp/mcu/all/bsp_group_irq.o
                0x2200332c                g_bsp_group_irq_sources
 .bss.g_protect_pfswe_counter
                0x2200336c        0x4 ./ra/fsp/src/bsp/mcu/all/bsp_io.o
                0x2200336c                g_protect_pfswe_counter
 .bss.gp_renesas_isr_context
                0x22003370      0x180 ./ra/fsp/src/bsp/mcu/all/bsp_irq.o
                0x22003370                gp_renesas_isr_context
 .bss.g_protect_counters
                0x220034f0        0x8 ./ra/fsp/src/bsp/mcu/all/bsp_register_protection.o
                0x220034f0                g_protect_counters
 .bss.current_heap_end.0
                0x220034f8        0x4 ./ra/fsp/src/bsp/mcu/all/bsp_sbrk.o
 .bss.SystemCoreClock
                0x220034fc        0x4 ./ra/fsp/src/bsp/cmsis/Device/RENESAS/Source/system.o
                0x220034fc                SystemCoreClock
 .bss.__malloc_sbrk_start
                0x22003500        0x4 C:/Program Files (x86)/Arm GNU Toolchain arm-none-eabi/13.2 Rel1/bin/../lib/gcc/arm-none-eabi/13.2.1/thumb/v8-m.main+dp/hard\libg_nano.a(libc_a-mallocr.o)
                0x22003500                __malloc_sbrk_start
 .bss.__malloc_free_list
                0x22003504        0x4 C:/Program Files (x86)/Arm GNU Toolchain arm-none-eabi/13.2 Rel1/bin/../lib/gcc/arm-none-eabi/13.2.1/thumb/v8-m.main+dp/hard\libg_nano.a(libc_a-mallocr.o)
                0x22003504                __malloc_free_list
 .bss.__sf      0x22003508      0x138 C:/Program Files (x86)/Arm GNU Toolchain arm-none-eabi/13.2 Rel1/bin/../lib/gcc/arm-none-eabi/13.2.1/thumb/v8-m.main+dp/hard\libg_nano.a(libc_a-findfp.o)
                0x22003508                __sf
 .bss.errno     0x22003640        0x4 C:/Program Files (x86)/Arm GNU Toolchain arm-none-eabi/13.2 Rel1/bin/../lib/gcc/arm-none-eabi/13.2.1/thumb/v8-m.main+dp/hard\libg_nano.a(libc_a-reent.o)
                0x22003640                errno
 .bss.__lock___malloc_recursive_mutex
                0x22003644        0x1 C:/Program Files (x86)/Arm GNU Toolchain arm-none-eabi/13.2 Rel1/bin/../lib/gcc/arm-none-eabi/13.2.1/thumb/v8-m.main+dp/hard\libg_nano.a(libc_a-lock.o)
                0x22003644                __lock___malloc_recursive_mutex
 *(COMMON)
                0x22003648                        . = ALIGN (0x4)
 *fill*         0x22003645        0x3 
                0x22003648                        __bss_end__ = .

.heap           0x22003648     0x1500
                0x22003648                        . = ALIGN (0x8)
                0x22003648                        __HeapBase = .
 *(.heap)
 .heap          0x22003648     0x1500 ./ra/fsp/src/bsp/cmsis/Device/RENESAS/Source/startup.o
                0x22004b48                        __HeapLimit = .

.stack_dummy    0x22004b48     0x1000
                0x22004b48                        . = ALIGN (0x8)
                0x22004b48                        __StackLimit = .
 *(.stack)
 .stack         0x22004b48     0x1000 ./ra/fsp/src/bsp/cmsis/Device/RENESAS/Source/startup.o
                0x22005b48                        __StackTop = .
 *(.stack*)
                0x22005b48                        __StackTopAll = .
                0x22005b48                        PROVIDE (__stack = __StackTopAll)
                0x22005b48                        __RAM_segment_used_end__ = ALIGN (__StackTopAll, 0x4)
                0x22005c00                        __RAM_NSC_START = DEFINED (RAM_NSC_START)?ABSOLUTE ((RAM_NSC_START - RAM_NS_BUFFER_BLOCK_LENGTH)):__RESERVE_NS_RAM?ABSOLUTE (RAM_NS_BUFFER_BLOCK_START):ALIGN (__RAM_segment_used_end__, 0x400)
                0x22006000                        __tz_RAM_N = DEFINED (FLASH_BOOTLOADER_LENGTH)?((RAM_START + RAM_LENGTH) - RAM_APPLICATION_NS_LENGTH):DEFINED (RAM_NS_START)?ABSOLUTE ((RAM_NS_START - RAM_NS_BUFFER_BLOCK_LENGTH)):__RESERVE_NS_RAM?ABSOLUTE (RAM_NS_BUFFER_BLOCK_START):ALIGN (__RAM_NSC_START, 0x2000)

.ns_buffer      0x22005b48        0x0
                0x22005b48                        . = __RESERVE_NS_RAM?ABSOLUTE ((RAM_NS_BUFFER_START & 0xffffffe0)):.
 *(.ns_buffer*)

.data_flash     0x27000000        0x0
                0x27000000                        . = ORIGIN (DATA_FLASH)
                0x27000000                        __tz_DATA_FLASH_S = .
                0x27000000                        __Data_Flash_Start = .
 *(.data_flash*)
                0x27000000                        __Data_Flash_End = .
                0x27000000                        __tz_DATA_FLASH_N = DEFINED (DATA_FLASH_NS_START)?ABSOLUTE (DATA_FLASH_NS_START):__RESERVE_NS_RAM?ABSOLUTE ((DATA_FLASH_START + DATA_FLASH_LENGTH)):ALIGN (0x400)
                0x68000000                        __tz_SDRAM_S = ORIGIN (SDRAM)

.sdram          0x68000000   0x190500
                0x68000000                        __SDRAM_Start = .
 *(.sdram*)
 .sdram         0x68000000   0x190500 ./ra_gen/common_data.o
                0x68000000                g_framebuffer
 *(.frame*)
                0x68190500                        __SDRAM_End = .
                0x68190500                        . = .
                0x68190500                        __nocache_sdram_pre_location = .

.nocache_sdram  0x68190500        0x0
                0x68190500                        __nocache_sdram_start = .
 *(.nocache_sdram)
                0x68190500                        . = ALIGN (0x20)
                0x68190500                        __nocache_sdram_end = .
                0x68190500                        . = (SIZEOF (.nocache_sdram) > 0x0)?__nocache_sdram_end:__nocache_sdram_pre_location
                0x68190500                        __tz_SDRAM_N = __SDRAM_End
                0x00000000                        __tz_ID_CODE_S = ORIGIN (ID_CODE)
                0x00000000                        __tz_ID_CODE_N = __tz_ID_CODE_S

.id_code        0x00000000        0x0
                0x00000000                        __ID_Code_Start = .
 *(.id_code*)
                0x00000000                        __ID_Code_End = .
                0x0300a100                        __tz_OPTION_SETTING_S = ORIGIN (OPTION_SETTING_OFS)

.option_setting_ofs
                0x0300a100       0x14
                0x0300a100                        __OPTION_SETTING_OFS_Start = .
 *(.option_setting_ofs0)
 .option_setting_ofs0
                0x0300a100        0x4 ./ra/fsp/src/bsp/mcu/all/bsp_rom_registers.o
                0x0300a104                        . = PROJECT_SECURE_OR_FLAT?(__OPTION_SETTING_OFS_Start + 0x4):__OPTION_SETTING_OFS_Start
 *(.option_setting_ofs2)
 .option_setting_ofs2
                0x0300a104        0x4 ./ra/fsp/src/bsp/mcu/all/bsp_rom_registers.o
                0x0300a110                        . = PROJECT_SECURE_OR_FLAT?(__OPTION_SETTING_OFS_Start + 0x10):__OPTION_SETTING_OFS_Start
 *fill*         0x0300a108        0x8 ff
 *(.option_setting_dualsel)
 .option_setting_dualsel
                0x0300a110        0x4 ./ra/fsp/src/bsp/mcu/all/bsp_rom_registers.o
                0x0300a114                        __OPTION_SETTING_OFS_End = .

.option_setting_sas
                0x0300a134        0x4
                0x0300a134                        __OPTION_SETTING_SAS_Start = .
 *(.option_setting_sas)
 .option_setting_sas
                0x0300a134        0x4 ./ra/fsp/src/bsp/mcu/all/bsp_rom_registers.o
                0x0300a138                        __OPTION_SETTING_SAS_End = .
                0x0300a180                        __tz_OPTION_SETTING_N = ABSOLUTE (OPTION_SETTING_START_NS)

.option_setting_ns
                0x0300a100        0x0
                0x0300a100                        __OPTION_SETTING_NS_Start = .
 *(.option_setting_ofs1)
                0x0300a100                        . = USE_OPTION_SETTING_NS?(__OPTION_SETTING_NS_Start + 0x4):__OPTION_SETTING_NS_Start
 *(.option_setting_ofs3)
                0x0300a100                        . = USE_OPTION_SETTING_NS?(__OPTION_SETTING_NS_Start + 0x10):__OPTION_SETTING_NS_Start
 *(.option_setting_banksel)
                0x0300a100                        . = USE_OPTION_SETTING_NS?(__OPTION_SETTING_NS_Start + 0x40):__OPTION_SETTING_NS_Start
 *(.option_setting_bps0)
                0x0300a100                        . = USE_OPTION_SETTING_NS?(__OPTION_SETTING_NS_Start + 0x44):__OPTION_SETTING_NS_Start
 *(.option_setting_bps1)
                0x0300a100                        . = USE_OPTION_SETTING_NS?(__OPTION_SETTING_NS_Start + 0x48):__OPTION_SETTING_NS_Start
 *(.option_setting_bps2)
                0x0300a100                        . = USE_OPTION_SETTING_NS?(__OPTION_SETTING_NS_Start + 0x4c):__OPTION_SETTING_NS_Start
 *(.option_setting_bps3)
                0x0300a100                        . = USE_OPTION_SETTING_NS?(__OPTION_SETTING_NS_Start + 0x60):__OPTION_SETTING_NS_Start
 *(.option_setting_pbps0)
                0x0300a100                        . = USE_OPTION_SETTING_NS?(__OPTION_SETTING_NS_Start + 0x64):__OPTION_SETTING_NS_Start
 *(.option_setting_pbps1)
                0x0300a100                        . = USE_OPTION_SETTING_NS?(__OPTION_SETTING_NS_Start + 0x68):__OPTION_SETTING_NS_Start
 *(.option_setting_pbps2)
                0x0300a100                        . = USE_OPTION_SETTING_NS?(__OPTION_SETTING_NS_Start + 0x6c):__OPTION_SETTING_NS_Start
 *(.option_setting_pbps3)
                0x0300a100                        __OPTION_SETTING_NS_End = .
                0x0300a200                        __tz_OPTION_SETTING_S_S = ORIGIN (OPTION_SETTING_S)

.option_setting_s
                0x0300a200       0xd0
                0x0300a200                        __OPTION_SETTING_S_Start = .
 *(.option_setting_ofs1_sec)
 .option_setting_ofs1_sec
                0x0300a200        0x4 ./ra/fsp/src/bsp/mcu/all/bsp_rom_registers.o
                0x0300a204                        . = PROJECT_SECURE_OR_FLAT?(__OPTION_SETTING_S_Start + 0x4):__OPTION_SETTING_S_Start
 *(.option_setting_ofs3_sec)
                0x0300a210                        . = PROJECT_SECURE_OR_FLAT?(__OPTION_SETTING_S_Start + 0x10):__OPTION_SETTING_S_Start
 *fill*         0x0300a204        0xc ff
 *(.option_setting_banksel_sec)
 .option_setting_banksel_sec
                0x0300a210        0x4 ./ra/fsp/src/bsp/mcu/all/bsp_rom_registers.o
                0x0300a240                        . = PROJECT_SECURE_OR_FLAT?(__OPTION_SETTING_S_Start + 0x40):__OPTION_SETTING_S_Start
 *fill*         0x0300a214       0x2c ff
 *(.option_setting_bps_sec0)
 .option_setting_bps_sec0
                0x0300a240        0x4 ./ra/fsp/src/bsp/mcu/all/bsp_rom_registers.o
                0x0300a244                        . = PROJECT_SECURE_OR_FLAT?(__OPTION_SETTING_S_Start + 0x44):__OPTION_SETTING_S_Start
 *(.option_setting_bps_sec1)
 .option_setting_bps_sec1
                0x0300a244        0x4 ./ra/fsp/src/bsp/mcu/all/bsp_rom_registers.o
                0x0300a248                        . = PROJECT_SECURE_OR_FLAT?(__OPTION_SETTING_S_Start + 0x48):__OPTION_SETTING_S_Start
 *(.option_setting_bps_sec2)
 .option_setting_bps_sec2
                0x0300a248        0x4 ./ra/fsp/src/bsp/mcu/all/bsp_rom_registers.o
                0x0300a24c                        . = PROJECT_SECURE_OR_FLAT?(__OPTION_SETTING_S_Start + 0x4c):__OPTION_SETTING_S_Start
 *(.option_setting_bps_sec3)
 .option_setting_bps_sec3
                0x0300a24c        0x4 ./ra/fsp/src/bsp/mcu/all/bsp_rom_registers.o
                0x0300a260                        . = PROJECT_SECURE_OR_FLAT?(__OPTION_SETTING_S_Start + 0x60):__OPTION_SETTING_S_Start
 *fill*         0x0300a250       0x10 ff
 *(.option_setting_pbps_sec0)
 .option_setting_pbps_sec0
                0x0300a260        0x4 ./ra/fsp/src/bsp/mcu/all/bsp_rom_registers.o
                0x0300a264                        . = PROJECT_SECURE_OR_FLAT?(__OPTION_SETTING_S_Start + 0x64):__OPTION_SETTING_S_Start
 *(.option_setting_pbps_sec1)
 .option_setting_pbps_sec1
                0x0300a264        0x4 ./ra/fsp/src/bsp/mcu/all/bsp_rom_registers.o
                0x0300a268                        . = PROJECT_SECURE_OR_FLAT?(__OPTION_SETTING_S_Start + 0x68):__OPTION_SETTING_S_Start
 *(.option_setting_pbps_sec2)
 .option_setting_pbps_sec2
                0x0300a268        0x4 ./ra/fsp/src/bsp/mcu/all/bsp_rom_registers.o
                0x0300a26c                        . = PROJECT_SECURE_OR_FLAT?(__OPTION_SETTING_S_Start + 0x6c):__OPTION_SETTING_S_Start
 *(.option_setting_pbps_sec3)
 .option_setting_pbps_sec3
                0x0300a26c        0x4 ./ra/fsp/src/bsp/mcu/all/bsp_rom_registers.o
                0x0300a280                        . = PROJECT_SECURE_OR_FLAT?(__OPTION_SETTING_S_Start + 0x80):__OPTION_SETTING_S_Start
 *fill*         0x0300a270       0x10 ff
 *(.option_setting_ofs1_sel)
 .option_setting_ofs1_sel
                0x0300a280        0x4 ./ra/fsp/src/bsp/mcu/all/bsp_rom_registers.o
                0x0300a284                        . = PROJECT_SECURE_OR_FLAT?(__OPTION_SETTING_S_Start + 0x84):__OPTION_SETTING_S_Start
 *(.option_setting_ofs3_sel)
                0x0300a290                        . = PROJECT_SECURE_OR_FLAT?(__OPTION_SETTING_S_Start + 0x90):__OPTION_SETTING_S_Start
 *fill*         0x0300a284        0xc ff
 *(.option_setting_banksel_sel)
 .option_setting_banksel_sel
                0x0300a290        0x4 ./ra/fsp/src/bsp/mcu/all/bsp_rom_registers.o
                0x0300a2c0                        . = PROJECT_SECURE_OR_FLAT?(__OPTION_SETTING_S_Start + 0xc0):__OPTION_SETTING_S_Start
 *fill*         0x0300a294       0x2c ff
 *(.option_setting_bps_sel0)
 .option_setting_bps_sel0
                0x0300a2c0        0x4 ./ra/fsp/src/bsp/mcu/all/bsp_rom_registers.o
                0x0300a2c4                        . = PROJECT_SECURE_OR_FLAT?(__OPTION_SETTING_S_Start + 0xc4):__OPTION_SETTING_S_Start
 *(.option_setting_bps_sel1)
 .option_setting_bps_sel1
                0x0300a2c4        0x4 ./ra/fsp/src/bsp/mcu/all/bsp_rom_registers.o
                0x0300a2c8                        . = PROJECT_SECURE_OR_FLAT?(__OPTION_SETTING_S_Start + 0xc8):__OPTION_SETTING_S_Start
 *(.option_setting_bps_sel2)
 .option_setting_bps_sel2
                0x0300a2c8        0x4 ./ra/fsp/src/bsp/mcu/all/bsp_rom_registers.o
                0x0300a2cc                        . = PROJECT_SECURE_OR_FLAT?(__OPTION_SETTING_S_Start + 0xcc):__OPTION_SETTING_S_Start
 *(.option_setting_bps_sel3)
 .option_setting_bps_sel3
                0x0300a2cc        0x4 ./ra/fsp/src/bsp/mcu/all/bsp_rom_registers.o
                0x0300a2d0                        __OPTION_SETTING_S_End = .
                0x0300a2d0                        __tz_OPTION_SETTING_S_N = __OPTION_SETTING_S_End
                0x27030080                        __tz_OPTION_SETTING_DATA_FLASH_S_S = ORIGIN (OPTION_SETTING_DATA_FLASH_S)

.option_setting_data_flash_s
                0x27030080      0x2e0
                0x27030080                        __OPTION_SETTING_DATA_FLASH_S_Start = .
 *(.option_setting_data_flash_fsblctrl0)
 .option_setting_data_flash_fsblctrl0
                0x27030080        0x4 ./ra/fsp/src/bsp/mcu/all/bsp_rom_registers.o
                0x27030084                        . = USE_OPTION_SETTING_DATA_FLASH?(__OPTION_SETTING_DATA_FLASH_S_Start + 0x4):__OPTION_SETTING_DATA_FLASH_S_Start
 *(.option_setting_data_flash_fsblctrl1)
 .option_setting_data_flash_fsblctrl1
                0x27030084        0x4 ./ra/fsp/src/bsp/mcu/all/bsp_rom_registers.o
                0x27030088                        . = USE_OPTION_SETTING_DATA_FLASH?(__OPTION_SETTING_DATA_FLASH_S_Start + 0x8):__OPTION_SETTING_DATA_FLASH_S_Start
 *(.option_setting_data_flash_fsblctrl2)
 .option_setting_data_flash_fsblctrl2
                0x27030088        0x4 ./ra/fsp/src/bsp/mcu/all/bsp_rom_registers.o
                0x2703008c                        . = USE_OPTION_SETTING_DATA_FLASH?(__OPTION_SETTING_DATA_FLASH_S_Start + 0xc):__OPTION_SETTING_DATA_FLASH_S_Start
 *(.option_setting_data_flash_sacc0)
 .option_setting_data_flash_sacc0
                0x2703008c        0x4 ./ra/fsp/src/bsp/mcu/all/bsp_rom_registers.o
                0x27030090                        . = USE_OPTION_SETTING_DATA_FLASH?(__OPTION_SETTING_DATA_FLASH_S_Start + 0x10):__OPTION_SETTING_DATA_FLASH_S_Start
 *(.option_setting_data_flash_sacc1)
 .option_setting_data_flash_sacc1
                0x27030090        0x4 ./ra/fsp/src/bsp/mcu/all/bsp_rom_registers.o
                0x27030094                        . = USE_OPTION_SETTING_DATA_FLASH?(__OPTION_SETTING_DATA_FLASH_S_Start + 0x14):__OPTION_SETTING_DATA_FLASH_S_Start
 *(.option_setting_data_flash_samr)
 .option_setting_data_flash_samr
                0x27030094        0x4 ./ra/fsp/src/bsp/mcu/all/bsp_rom_registers.o
                0x27030360                        . = USE_OPTION_SETTING_DATA_FLASH?(__OPTION_SETTING_DATA_FLASH_S_Start + 0x2e0):__OPTION_SETTING_DATA_FLASH_S_Start
 *fill*         0x27030098      0x2c8 ff
 *(.option_setting_data_flash_hoemrtpk)
                0x27030360                        __OPTION_SETTING_DATA_FLASH_S_End = .
                0x27030360                        __tz_OPTION_SETTING_DATA_FLASH_S_N = __OPTION_SETTING_DATA_FLASH_S_End
OUTPUT(EK_RA8D1_GLCD_tb0.elf elf32-littlearm)
LOAD linker stubs

.rel.dyn        0x27030360        0x0
 .rel.iplt      0x27030360        0x0 C:/Program Files (x86)/Arm GNU Toolchain arm-none-eabi/13.2 Rel1/bin/../lib/gcc/arm-none-eabi/13.2.1/thumb/v8-m.main+dp/hard/crtbegin.o

.ARM.attributes
                0x00000000       0x3a
 .ARM.attributes
                0x00000000       0x24 C:/Program Files (x86)/Arm GNU Toolchain arm-none-eabi/13.2 Rel1/bin/../lib/gcc/arm-none-eabi/13.2.1/thumb/v8-m.main+dp/hard/crti.o
 .ARM.attributes
                0x00000024       0x36 C:/Program Files (x86)/Arm GNU Toolchain arm-none-eabi/13.2 Rel1/bin/../lib/gcc/arm-none-eabi/13.2.1/thumb/v8-m.main+dp/hard/crtbegin.o
 .ARM.attributes
                0x0000005a       0x3e ./src/testbench/testbench.o
 .ARM.attributes
                0x00000098       0x3e ./src/testbench/testbench_timers.o
 .ARM.attributes
                0x000000d6       0x3e ./src/draw_core/draw_core.o
 .ARM.attributes
                0x00000114       0x3e ./src/SEGGER_RTT/SEGGER_RTT_printf.o
 .ARM.attributes
                0x00000152       0x3e ./src/SCI_RTT/SCI_RTT.o
 .ARM.attributes
                0x00000190       0x3e ./src/MIPI/mipi.o
 .ARM.attributes
                0x000001ce       0x3e ./src/GLCD/glcd.o
 .ARM.attributes
                0x0000020c       0x3e ./src/DRW_ep.o
 .ARM.attributes
                0x0000024a       0x3e ./src/hal_entry.o
 .ARM.attributes
                0x00000288       0x3e ./ra_gen/common_data.o
 .ARM.attributes
                0x000002c6       0x3e ./ra_gen/hal_data.o
 .ARM.attributes
                0x00000304       0x3e ./ra_gen/main.o
 .ARM.attributes
                0x00000342       0x3e ./ra_gen/pin_data.o
 .ARM.attributes
                0x00000380       0x3e ./ra_gen/vector_data.o
 .ARM.attributes
                0x000003be       0x3e ./ra/tes/dave2d/src/dave_box.o
 .ARM.attributes
                0x000003fc       0x3e ./ra/tes/dave2d/src/dave_context.o
 .ARM.attributes
                0x0000043a       0x3e ./ra/tes/dave2d/src/dave_curve.o
 .ARM.attributes
                0x00000478       0x3e ./ra/tes/dave2d/src/dave_dlist.o
 .ARM.attributes
                0x000004b6       0x3e ./ra/tes/dave2d/src/dave_driver.o
 .ARM.attributes
                0x000004f4       0x3e ./ra/tes/dave2d/src/dave_edge.o
 .ARM.attributes
                0x00000532       0x3e ./ra/tes/dave2d/src/dave_errorcodes.o
 .ARM.attributes
                0x00000570       0x3e ./ra/tes/dave2d/src/dave_gradient.o
 .ARM.attributes
                0x000005ae       0x3e ./ra/tes/dave2d/src/dave_hardware.o
 .ARM.attributes
                0x000005ec       0x3e ./ra/tes/dave2d/src/dave_line.o
 .ARM.attributes
                0x0000062a       0x3e ./ra/tes/dave2d/src/dave_math.o
 .ARM.attributes
                0x00000668       0x3e ./ra/tes/dave2d/src/dave_memory.o
 .ARM.attributes
                0x000006a6       0x3e ./ra/tes/dave2d/src/dave_pattern.o
 .ARM.attributes
                0x000006e4       0x3e ./ra/tes/dave2d/src/dave_polyline.o
 .ARM.attributes
                0x00000722       0x3e ./ra/tes/dave2d/src/dave_rbuffer.o
 .ARM.attributes
                0x00000760       0x3e ./ra/tes/dave2d/src/dave_render.o
 .ARM.attributes
                0x0000079e       0x3e ./ra/tes/dave2d/src/dave_texture.o
 .ARM.attributes
                0x000007dc       0x3e ./ra/tes/dave2d/src/dave_triangle.o
 .ARM.attributes
                0x0000081a       0x3e ./ra/tes/dave2d/src/dave_viewport.o
 .ARM.attributes
                0x00000858       0x3e ./ra/fsp/src/r_sci_b_uart/r_sci_b_uart.o
 .ARM.attributes
                0x00000896       0x3e ./ra/fsp/src/r_mipi_phy/r_mipi_phy.o
 .ARM.attributes
                0x000008d4       0x3e ./ra/fsp/src/r_mipi_dsi/r_mipi_dsi.o
 .ARM.attributes
                0x00000912       0x3e ./ra/fsp/src/r_ioport/r_ioport.o
 .ARM.attributes
                0x00000950       0x3e ./ra/fsp/src/r_gpt/r_gpt.o
 .ARM.attributes
                0x0000098e       0x3e ./ra/fsp/src/r_glcdc/r_glcdc.o
 .ARM.attributes
                0x000009cc       0x3e ./ra/fsp/src/r_drw/r_drw_base.o
 .ARM.attributes
                0x00000a0a       0x3e ./ra/fsp/src/r_drw/r_drw_irq.o
 .ARM.attributes
                0x00000a48       0x3e ./ra/fsp/src/r_drw/r_drw_memory.o
 .ARM.attributes
                0x00000a86       0x3e ./ra/fsp/src/bsp/mcu/all/bsp_clocks.o
 .ARM.attributes
                0x00000ac4       0x3e ./ra/fsp/src/bsp/mcu/all/bsp_common.o
 .ARM.attributes
                0x00000b02       0x3e ./ra/fsp/src/bsp/mcu/all/bsp_delay.o
 .ARM.attributes
                0x00000b40       0x3e ./ra/fsp/src/bsp/mcu/all/bsp_group_irq.o
 .ARM.attributes
                0x00000b7e       0x3e ./ra/fsp/src/bsp/mcu/all/bsp_io.o
 .ARM.attributes
                0x00000bbc       0x3e ./ra/fsp/src/bsp/mcu/all/bsp_irq.o
 .ARM.attributes
                0x00000bfa       0x3e ./ra/fsp/src/bsp/mcu/all/bsp_register_protection.o
 .ARM.attributes
                0x00000c38       0x3e ./ra/fsp/src/bsp/mcu/all/bsp_rom_registers.o
 .ARM.attributes
                0x00000c76       0x3e ./ra/fsp/src/bsp/mcu/all/bsp_sbrk.o
 .ARM.attributes
                0x00000cb4       0x3e ./ra/fsp/src/bsp/cmsis/Device/RENESAS/Source/startup.o
 .ARM.attributes
                0x00000cf2       0x3e ./ra/fsp/src/bsp/cmsis/Device/RENESAS/Source/system.o
 .ARM.attributes
                0x00000d30       0x3e ./ra/board/ra8d1_ek/board_init.o
 .ARM.attributes
                0x00000d6e       0x3e ./ra/board/ra8d1_ek/board_leds.o
 .ARM.attributes
                0x00000dac       0x3e ./ra/board/ra8d1_ek/board_sdram.o
 .ARM.attributes
                0x00000dea       0x24 C:/Program Files (x86)/Arm GNU Toolchain arm-none-eabi/13.2 Rel1/bin/../lib/gcc/arm-none-eabi/13.2.1/thumb/v8-m.main+dp/hard\libgcc.a(_aeabi_ldivmod.o)
 .ARM.attributes
                0x00000e0e       0x36 C:/Program Files (x86)/Arm GNU Toolchain arm-none-eabi/13.2 Rel1/bin/../lib/gcc/arm-none-eabi/13.2.1/thumb/v8-m.main+dp/hard\libgcc.a(_udivmoddi4.o)
 .ARM.attributes
                0x00000e44       0x24 C:/Program Files (x86)/Arm GNU Toolchain arm-none-eabi/13.2 Rel1/bin/../lib/gcc/arm-none-eabi/13.2.1/thumb/v8-m.main+dp/hard\libgcc.a(_dvmd_tls.o)
 .ARM.attributes
                0x00000e68       0x36 C:/Program Files (x86)/Arm GNU Toolchain arm-none-eabi/13.2 Rel1/bin/../lib/gcc/arm-none-eabi/13.2.1/thumb/v8-m.main+dp/hard\libg_nano.a(libc_a-malloc.o)
 .ARM.attributes
                0x00000e9e       0x36 C:/Program Files (x86)/Arm GNU Toolchain arm-none-eabi/13.2 Rel1/bin/../lib/gcc/arm-none-eabi/13.2.1/thumb/v8-m.main+dp/hard\libg_nano.a(libc_a-mallocr.o)
 .ARM.attributes
                0x00000ed4       0x36 C:/Program Files (x86)/Arm GNU Toolchain arm-none-eabi/13.2 Rel1/bin/../lib/gcc/arm-none-eabi/13.2.1/thumb/v8-m.main+dp/hard\libg_nano.a(libc_a-mlock.o)
 .ARM.attributes
                0x00000f0a       0x36 C:/Program Files (x86)/Arm GNU Toolchain arm-none-eabi/13.2 Rel1/bin/../lib/gcc/arm-none-eabi/13.2.1/thumb/v8-m.main+dp/hard\libg_nano.a(libc_a-findfp.o)
 .ARM.attributes
                0x00000f40       0x36 C:/Program Files (x86)/Arm GNU Toolchain arm-none-eabi/13.2 Rel1/bin/../lib/gcc/arm-none-eabi/13.2.1/thumb/v8-m.main+dp/hard\libg_nano.a(libc_a-memset.o)
 .ARM.attributes
                0x00000f76       0x36 C:/Program Files (x86)/Arm GNU Toolchain arm-none-eabi/13.2 Rel1/bin/../lib/gcc/arm-none-eabi/13.2.1/thumb/v8-m.main+dp/hard\libg_nano.a(libc_a-reent.o)
 .ARM.attributes
                0x00000fac       0x36 C:/Program Files (x86)/Arm GNU Toolchain arm-none-eabi/13.2 Rel1/bin/../lib/gcc/arm-none-eabi/13.2.1/thumb/v8-m.main+dp/hard\libg_nano.a(libc_a-impure.o)
 .ARM.attributes
                0x00000fe2       0x36 C:/Program Files (x86)/Arm GNU Toolchain arm-none-eabi/13.2 Rel1/bin/../lib/gcc/arm-none-eabi/13.2.1/thumb/v8-m.main+dp/hard\libg_nano.a(libc_a-sbrkr.o)
 .ARM.attributes
                0x00001018       0x36 C:/Program Files (x86)/Arm GNU Toolchain arm-none-eabi/13.2 Rel1/bin/../lib/gcc/arm-none-eabi/13.2.1/thumb/v8-m.main+dp/hard\libg_nano.a(libc_a-errno.o)
 .ARM.attributes
                0x0000104e       0x36 C:/Program Files (x86)/Arm GNU Toolchain arm-none-eabi/13.2 Rel1/bin/../lib/gcc/arm-none-eabi/13.2.1/thumb/v8-m.main+dp/hard\libg_nano.a(libc_a-lock.o)
 .ARM.attributes
                0x00001084       0x36 C:/Program Files (x86)/Arm GNU Toolchain arm-none-eabi/13.2 Rel1/bin/../lib/gcc/arm-none-eabi/13.2.1/thumb/v8-m.main+dp/hard\libg_nano.a(libc_a-memcpy-stub.o)
 .ARM.attributes
                0x000010ba       0x22 C:/Program Files (x86)/Arm GNU Toolchain arm-none-eabi/13.2 Rel1/bin/../lib/gcc/arm-none-eabi/13.2.1/thumb/v8-m.main+dp/hard\libg_nano.a(libc_a-strlen.o)
 .ARM.attributes
                0x000010dc       0x36 C:/Program Files (x86)/Arm GNU Toolchain arm-none-eabi/13.2 Rel1/bin/../lib/gcc/arm-none-eabi/13.2.1/thumb/v8-m.main+dp/hard\libg_nano.a(libc_a-freer.o)
 .ARM.attributes
                0x00001112       0x36 C:/Program Files (x86)/Arm GNU Toolchain arm-none-eabi/13.2 Rel1/bin/../lib/gcc/arm-none-eabi/13.2.1/thumb/v8-m.main+dp/hard/crtend.o
 .ARM.attributes
                0x00001148       0x24 C:/Program Files (x86)/Arm GNU Toolchain arm-none-eabi/13.2 Rel1/bin/../lib/gcc/arm-none-eabi/13.2.1/thumb/v8-m.main+dp/hard/crtn.o

.comment        0x00000000       0x44
 .comment       0x00000000       0x44 ./src/testbench/testbench.o
                                 0x45 (size before relaxing)
 .comment       0x00000044       0x45 ./src/testbench/testbench_timers.o
 .comment       0x00000044       0x45 ./src/draw_core/draw_core.o
 .comment       0x00000044       0x45 ./src/SEGGER_RTT/SEGGER_RTT_printf.o
 .comment       0x00000044       0x45 ./src/SCI_RTT/SCI_RTT.o
 .comment       0x00000044       0x45 ./src/MIPI/mipi.o
 .comment       0x00000044       0x45 ./src/GLCD/glcd.o
 .comment       0x00000044       0x45 ./src/DRW_ep.o
 .comment       0x00000044       0x45 ./src/hal_entry.o
 .comment       0x00000044       0x45 ./ra_gen/common_data.o
 .comment       0x00000044       0x45 ./ra_gen/hal_data.o
 .comment       0x00000044       0x45 ./ra_gen/main.o
 .comment       0x00000044       0x45 ./ra_gen/pin_data.o
 .comment       0x00000044       0x45 ./ra_gen/vector_data.o
 .comment       0x00000044       0x45 ./ra/tes/dave2d/src/dave_box.o
 .comment       0x00000044       0x45 ./ra/tes/dave2d/src/dave_context.o
 .comment       0x00000044       0x45 ./ra/tes/dave2d/src/dave_curve.o
 .comment       0x00000044       0x45 ./ra/tes/dave2d/src/dave_dlist.o
 .comment       0x00000044       0x45 ./ra/tes/dave2d/src/dave_driver.o
 .comment       0x00000044       0x45 ./ra/tes/dave2d/src/dave_edge.o
 .comment       0x00000044       0x45 ./ra/tes/dave2d/src/dave_errorcodes.o
 .comment       0x00000044       0x45 ./ra/tes/dave2d/src/dave_gradient.o
 .comment       0x00000044       0x45 ./ra/tes/dave2d/src/dave_hardware.o
 .comment       0x00000044       0x45 ./ra/tes/dave2d/src/dave_line.o
 .comment       0x00000044       0x45 ./ra/tes/dave2d/src/dave_math.o
 .comment       0x00000044       0x45 ./ra/tes/dave2d/src/dave_memory.o
 .comment       0x00000044       0x45 ./ra/tes/dave2d/src/dave_pattern.o
 .comment       0x00000044       0x45 ./ra/tes/dave2d/src/dave_polyline.o
 .comment       0x00000044       0x45 ./ra/tes/dave2d/src/dave_rbuffer.o
 .comment       0x00000044       0x45 ./ra/tes/dave2d/src/dave_render.o
 .comment       0x00000044       0x45 ./ra/tes/dave2d/src/dave_texture.o
 .comment       0x00000044       0x45 ./ra/tes/dave2d/src/dave_triangle.o
 .comment       0x00000044       0x45 ./ra/tes/dave2d/src/dave_viewport.o
 .comment       0x00000044       0x45 ./ra/fsp/src/r_sci_b_uart/r_sci_b_uart.o
 .comment       0x00000044       0x45 ./ra/fsp/src/r_mipi_phy/r_mipi_phy.o
 .comment       0x00000044       0x45 ./ra/fsp/src/r_mipi_dsi/r_mipi_dsi.o
 .comment       0x00000044       0x45 ./ra/fsp/src/r_ioport/r_ioport.o
 .comment       0x00000044       0x45 ./ra/fsp/src/r_gpt/r_gpt.o
 .comment       0x00000044       0x45 ./ra/fsp/src/r_glcdc/r_glcdc.o
 .comment       0x00000044       0x45 ./ra/fsp/src/r_drw/r_drw_base.o
 .comment       0x00000044       0x45 ./ra/fsp/src/r_drw/r_drw_irq.o
 .comment       0x00000044       0x45 ./ra/fsp/src/r_drw/r_drw_memory.o
 .comment       0x00000044       0x45 ./ra/fsp/src/bsp/mcu/all/bsp_clocks.o
 .comment       0x00000044       0x45 ./ra/fsp/src/bsp/mcu/all/bsp_common.o
 .comment       0x00000044       0x45 ./ra/fsp/src/bsp/mcu/all/bsp_delay.o
 .comment       0x00000044       0x45 ./ra/fsp/src/bsp/mcu/all/bsp_group_irq.o
 .comment       0x00000044       0x45 ./ra/fsp/src/bsp/mcu/all/bsp_io.o
 .comment       0x00000044       0x45 ./ra/fsp/src/bsp/mcu/all/bsp_irq.o
 .comment       0x00000044       0x45 ./ra/fsp/src/bsp/mcu/all/bsp_register_protection.o
 .comment       0x00000044       0x45 ./ra/fsp/src/bsp/mcu/all/bsp_rom_registers.o
 .comment       0x00000044       0x45 ./ra/fsp/src/bsp/mcu/all/bsp_sbrk.o
 .comment       0x00000044       0x45 ./ra/fsp/src/bsp/cmsis/Device/RENESAS/Source/startup.o
 .comment       0x00000044       0x45 ./ra/fsp/src/bsp/cmsis/Device/RENESAS/Source/system.o
 .comment       0x00000044       0x45 ./ra/board/ra8d1_ek/board_init.o
 .comment       0x00000044       0x45 ./ra/board/ra8d1_ek/board_leds.o
 .comment       0x00000044       0x45 ./ra/board/ra8d1_ek/board_sdram.o

.debug_info     0x00000000    0x9ce15
 .debug_info    0x00000000     0x4940 ./src/testbench/testbench.o
 .debug_info    0x00004940     0x1b45 ./src/testbench/testbench_timers.o
 .debug_info    0x00006485      0x830 ./src/draw_core/draw_core.o
 .debug_info    0x00006cb5      0x440 ./src/SEGGER_RTT/SEGGER_RTT_printf.o
 .debug_info    0x000070f5     0x2e99 ./src/SCI_RTT/SCI_RTT.o
 .debug_info    0x00009f8e     0x1701 ./src/MIPI/mipi.o
 .debug_info    0x0000b68f     0x1dc0 ./src/GLCD/glcd.o
 .debug_info    0x0000d44f     0x54f1 ./src/DRW_ep.o
 .debug_info    0x00012940     0x128c ./src/hal_entry.o
 .debug_info    0x00013bcc     0x3359 ./ra_gen/common_data.o
 .debug_info    0x00016f25     0x69e0 ./ra_gen/hal_data.o
 .debug_info    0x0001d905       0xa6 ./ra_gen/main.o
 .debug_info    0x0001d9ab      0xa2c ./ra_gen/pin_data.o
 .debug_info    0x0001e3d7      0x9a1 ./ra_gen/vector_data.o
 .debug_info    0x0001ed78     0x14e5 ./ra/tes/dave2d/src/dave_box.o
 .debug_info    0x0002025d     0x1e5c ./ra/tes/dave2d/src/dave_context.o
 .debug_info    0x000220b9      0xfc2 ./ra/tes/dave2d/src/dave_curve.o
 .debug_info    0x0002307b     0x1bba ./ra/tes/dave2d/src/dave_dlist.o
 .debug_info    0x00024c35     0x18b2 ./ra/tes/dave2d/src/dave_driver.o
 .debug_info    0x000264e7     0x13fb ./ra/tes/dave2d/src/dave_edge.o
 .debug_info    0x000278e2      0x19d ./ra/tes/dave2d/src/dave_errorcodes.o
 .debug_info    0x00027a7f     0x101a ./ra/tes/dave2d/src/dave_gradient.o
 .debug_info    0x00028a99     0x1156 ./ra/tes/dave2d/src/dave_hardware.o
 .debug_info    0x00029bef     0x21a1 ./ra/tes/dave2d/src/dave_line.o
 .debug_info    0x0002bd90       0xfa ./ra/tes/dave2d/src/dave_math.o
 .debug_info    0x0002be8a     0x109b ./ra/tes/dave2d/src/dave_memory.o
 .debug_info    0x0002cf25      0xfa8 ./ra/tes/dave2d/src/dave_pattern.o
 .debug_info    0x0002decd     0x1929 ./ra/tes/dave2d/src/dave_polyline.o
 .debug_info    0x0002f7f6     0x1777 ./ra/tes/dave2d/src/dave_rbuffer.o
 .debug_info    0x00030f6d     0x240b ./ra/tes/dave2d/src/dave_render.o
 .debug_info    0x00033378     0x19d5 ./ra/tes/dave2d/src/dave_texture.o
 .debug_info    0x00034d4d     0x16e6 ./ra/tes/dave2d/src/dave_triangle.o
 .debug_info    0x00036433     0x1113 ./ra/tes/dave2d/src/dave_viewport.o
 .debug_info    0x00037546     0xbfc9 ./ra/fsp/src/r_sci_b_uart/r_sci_b_uart.o
 .debug_info    0x0004350f     0x7609 ./ra/fsp/src/r_mipi_phy/r_mipi_phy.o
 .debug_info    0x0004ab18    0x1103b ./ra/fsp/src/r_mipi_dsi/r_mipi_dsi.o
 .debug_info    0x0005bb53     0xa936 ./ra/fsp/src/r_ioport/r_ioport.o
 .debug_info    0x00066489     0xd40d ./ra/fsp/src/r_gpt/r_gpt.o
 .debug_info    0x00073896     0x6e96 ./ra/fsp/src/r_glcdc/r_glcdc.o
 .debug_info    0x0007a72c     0x2605 ./ra/fsp/src/r_drw/r_drw_base.o
 .debug_info    0x0007cd31     0x29aa ./ra/fsp/src/r_drw/r_drw_irq.o
 .debug_info    0x0007f6db      0x518 ./ra/fsp/src/r_drw/r_drw_memory.o
 .debug_info    0x0007fbf3     0x88da ./ra/fsp/src/bsp/mcu/all/bsp_clocks.o
 .debug_info    0x000884cd      0x979 ./ra/fsp/src/bsp/mcu/all/bsp_common.o
 .debug_info    0x00088e46      0x1a0 ./ra/fsp/src/bsp/mcu/all/bsp_delay.o
 .debug_info    0x00088fe6     0x1308 ./ra/fsp/src/bsp/mcu/all/bsp_group_irq.o
 .debug_info    0x0008a2ee       0xb1 ./ra/fsp/src/bsp/mcu/all/bsp_io.o
 .debug_info    0x0008a39f     0x134a ./ra/fsp/src/bsp/mcu/all/bsp_irq.o
 .debug_info    0x0008b6e9     0x689e ./ra/fsp/src/bsp/mcu/all/bsp_register_protection.o
 .debug_info    0x00091f87      0x26a ./ra/fsp/src/bsp/mcu/all/bsp_rom_registers.o
 .debug_info    0x000921f1      0x133 ./ra/fsp/src/bsp/mcu/all/bsp_sbrk.o
 .debug_info    0x00092324      0x178 ./ra/fsp/src/bsp/cmsis/Device/RENESAS/Source/startup.o
 .debug_info    0x0009249c     0x7e37 ./ra/fsp/src/bsp/cmsis/Device/RENESAS/Source/system.o
 .debug_info    0x0009a2d3       0xa5 ./ra/board/ra8d1_ek/board_init.o
 .debug_info    0x0009a378      0x7a1 ./ra/board/ra8d1_ek/board_leds.o
 .debug_info    0x0009ab19     0x22fc ./ra/board/ra8d1_ek/board_sdram.o

.debug_abbrev   0x00000000     0x7ddc
 .debug_abbrev  0x00000000      0x34a ./src/testbench/testbench.o
 .debug_abbrev  0x0000034a      0x1e4 ./src/testbench/testbench_timers.o
 .debug_abbrev  0x0000052e      0x1ea ./src/draw_core/draw_core.o
 .debug_abbrev  0x00000718      0x1b0 ./src/SEGGER_RTT/SEGGER_RTT_printf.o
 .debug_abbrev  0x000008c8      0x2de ./src/SCI_RTT/SCI_RTT.o
 .debug_abbrev  0x00000ba6      0x331 ./src/MIPI/mipi.o
 .debug_abbrev  0x00000ed7      0x260 ./src/GLCD/glcd.o
 .debug_abbrev  0x00001137      0x38a ./src/DRW_ep.o
 .debug_abbrev  0x000014c1      0x178 ./src/hal_entry.o
 .debug_abbrev  0x00001639      0x2f8 ./ra_gen/common_data.o
 .debug_abbrev  0x00001931      0x2a3 ./ra_gen/hal_data.o
 .debug_abbrev  0x00001bd4       0x59 ./ra_gen/main.o
 .debug_abbrev  0x00001c2d      0x109 ./ra_gen/pin_data.o
 .debug_abbrev  0x00001d36       0xba ./ra_gen/vector_data.o
 .debug_abbrev  0x00001df0      0x23d ./ra/tes/dave2d/src/dave_box.o
 .debug_abbrev  0x0000202d      0x274 ./ra/tes/dave2d/src/dave_context.o
 .debug_abbrev  0x000022a1      0x1b3 ./ra/tes/dave2d/src/dave_curve.o
 .debug_abbrev  0x00002454      0x31e ./ra/tes/dave2d/src/dave_dlist.o
 .debug_abbrev  0x00002772      0x31b ./ra/tes/dave2d/src/dave_driver.o
 .debug_abbrev  0x00002a8d      0x20c ./ra/tes/dave2d/src/dave_edge.o
 .debug_abbrev  0x00002c99       0xb9 ./ra/tes/dave2d/src/dave_errorcodes.o
 .debug_abbrev  0x00002d52      0x1e4 ./ra/tes/dave2d/src/dave_gradient.o
 .debug_abbrev  0x00002f36      0x1fa ./ra/tes/dave2d/src/dave_hardware.o
 .debug_abbrev  0x00003130      0x22e ./ra/tes/dave2d/src/dave_line.o
 .debug_abbrev  0x0000335e       0xa6 ./ra/tes/dave2d/src/dave_math.o
 .debug_abbrev  0x00003404      0x1e1 ./ra/tes/dave2d/src/dave_memory.o
 .debug_abbrev  0x000035e5      0x197 ./ra/tes/dave2d/src/dave_pattern.o
 .debug_abbrev  0x0000377c      0x23f ./ra/tes/dave2d/src/dave_polyline.o
 .debug_abbrev  0x000039bb      0x2cf ./ra/tes/dave2d/src/dave_rbuffer.o
 .debug_abbrev  0x00003c8a      0x27e ./ra/tes/dave2d/src/dave_render.o
 .debug_abbrev  0x00003f08      0x2c4 ./ra/tes/dave2d/src/dave_texture.o
 .debug_abbrev  0x000041cc      0x22c ./ra/tes/dave2d/src/dave_triangle.o
 .debug_abbrev  0x000043f8      0x1db ./ra/tes/dave2d/src/dave_viewport.o
 .debug_abbrev  0x000045d3      0x527 ./ra/fsp/src/r_sci_b_uart/r_sci_b_uart.o
 .debug_abbrev  0x00004afa      0x2d7 ./ra/fsp/src/r_mipi_phy/r_mipi_phy.o
 .debug_abbrev  0x00004dd1      0x5b8 ./ra/fsp/src/r_mipi_dsi/r_mipi_dsi.o
 .debug_abbrev  0x00005389      0x3bf ./ra/fsp/src/r_ioport/r_ioport.o
 .debug_abbrev  0x00005748      0x577 ./ra/fsp/src/r_gpt/r_gpt.o
 .debug_abbrev  0x00005cbf      0x585 ./ra/fsp/src/r_glcdc/r_glcdc.o
 .debug_abbrev  0x00006244      0x296 ./ra/fsp/src/r_drw/r_drw_base.o
 .debug_abbrev  0x000064da      0x38d ./ra/fsp/src/r_drw/r_drw_irq.o
 .debug_abbrev  0x00006867      0x1a0 ./ra/fsp/src/r_drw/r_drw_memory.o
 .debug_abbrev  0x00006a07      0x334 ./ra/fsp/src/bsp/mcu/all/bsp_clocks.o
 .debug_abbrev  0x00006d3b      0x17c ./ra/fsp/src/bsp/mcu/all/bsp_common.o
 .debug_abbrev  0x00006eb7       0xd2 ./ra/fsp/src/bsp/mcu/all/bsp_delay.o
 .debug_abbrev  0x00006f89      0x23e ./ra/fsp/src/bsp/mcu/all/bsp_group_irq.o
 .debug_abbrev  0x000071c7       0x5e ./ra/fsp/src/bsp/mcu/all/bsp_io.o
 .debug_abbrev  0x00007225      0x1b5 ./ra/fsp/src/bsp/mcu/all/bsp_irq.o
 .debug_abbrev  0x000073da      0x1ff ./ra/fsp/src/bsp/mcu/all/bsp_register_protection.o
 .debug_abbrev  0x000075d9       0x4d ./ra/fsp/src/bsp/mcu/all/bsp_rom_registers.o
 .debug_abbrev  0x00007626       0xaa ./ra/fsp/src/bsp/mcu/all/bsp_sbrk.o
 .debug_abbrev  0x000076d0       0xee ./ra/fsp/src/bsp/cmsis/Device/RENESAS/Source/startup.o
 .debug_abbrev  0x000077be      0x322 ./ra/fsp/src/bsp/cmsis/Device/RENESAS/Source/system.o
 .debug_abbrev  0x00007ae0       0x5c ./ra/board/ra8d1_ek/board_init.o
 .debug_abbrev  0x00007b3c       0xc4 ./ra/board/ra8d1_ek/board_leds.o
 .debug_abbrev  0x00007c00      0x1dc ./ra/board/ra8d1_ek/board_sdram.o

.debug_aranges  0x00000000     0x1650
 .debug_aranges
                0x00000000       0x28 ./src/testbench/testbench.o
 .debug_aranges
                0x00000028       0x20 ./src/testbench/testbench_timers.o
 .debug_aranges
                0x00000048       0x40 ./src/draw_core/draw_core.o
 .debug_aranges
                0x00000088       0x40 ./src/SEGGER_RTT/SEGGER_RTT_printf.o
 .debug_aranges
                0x000000c8       0x40 ./src/SCI_RTT/SCI_RTT.o
 .debug_aranges
                0x00000108       0x28 ./src/MIPI/mipi.o
 .debug_aranges
                0x00000130       0x38 ./src/GLCD/glcd.o
 .debug_aranges
                0x00000168       0x30 ./src/DRW_ep.o
 .debug_aranges
                0x00000198       0x28 ./src/hal_entry.o
 .debug_aranges
                0x000001c0       0x20 ./ra_gen/common_data.o
 .debug_aranges
                0x000001e0       0x20 ./ra_gen/hal_data.o
 .debug_aranges
                0x00000200       0x20 ./ra_gen/main.o
 .debug_aranges
                0x00000220       0x18 ./ra_gen/pin_data.o
 .debug_aranges
                0x00000238       0x18 ./ra_gen/vector_data.o
 .debug_aranges
                0x00000250       0x68 ./ra/tes/dave2d/src/dave_box.o
 .debug_aranges
                0x000002b8      0x198 ./ra/tes/dave2d/src/dave_context.o
 .debug_aranges
                0x00000450       0x28 ./ra/tes/dave2d/src/dave_curve.o
 .debug_aranges
                0x00000478       0xd8 ./ra/tes/dave2d/src/dave_dlist.o
 .debug_aranges
                0x00000550       0xf0 ./ra/tes/dave2d/src/dave_driver.o
 .debug_aranges
                0x00000640       0x58 ./ra/tes/dave2d/src/dave_edge.o
 .debug_aranges
                0x00000698       0x20 ./ra/tes/dave2d/src/dave_errorcodes.o
 .debug_aranges
                0x000006b8       0x40 ./ra/tes/dave2d/src/dave_gradient.o
 .debug_aranges
                0x000006f8       0x50 ./ra/tes/dave2d/src/dave_hardware.o
 .debug_aranges
                0x00000748       0x98 ./ra/tes/dave2d/src/dave_line.o
 .debug_aranges
                0x000007e0       0x28 ./ra/tes/dave2d/src/dave_math.o
 .debug_aranges
                0x00000808       0x40 ./ra/tes/dave2d/src/dave_memory.o
 .debug_aranges
                0x00000848       0x38 ./ra/tes/dave2d/src/dave_pattern.o
 .debug_aranges
                0x00000880       0x80 ./ra/tes/dave2d/src/dave_polyline.o
 .debug_aranges
                0x00000900       0xb0 ./ra/tes/dave2d/src/dave_rbuffer.o
 .debug_aranges
                0x000009b0       0xc0 ./ra/tes/dave2d/src/dave_render.o
 .debug_aranges
                0x00000a70       0xf8 ./ra/tes/dave2d/src/dave_texture.o
 .debug_aranges
                0x00000b68       0x50 ./ra/tes/dave2d/src/dave_triangle.o
 .debug_aranges
                0x00000bb8       0x48 ./ra/tes/dave2d/src/dave_viewport.o
 .debug_aranges
                0x00000c00      0x110 ./ra/fsp/src/r_sci_b_uart/r_sci_b_uart.o
 .debug_aranges
                0x00000d10       0x30 ./ra/fsp/src/r_mipi_phy/r_mipi_phy.o
 .debug_aranges
                0x00000d40      0x150 ./ra/fsp/src/r_mipi_dsi/r_mipi_dsi.o
 .debug_aranges
                0x00000e90       0xb8 ./ra/fsp/src/r_ioport/r_ioport.o
 .debug_aranges
                0x00000f48      0x180 ./ra/fsp/src/r_gpt/r_gpt.o
 .debug_aranges
                0x000010c8      0x180 ./ra/fsp/src/r_glcdc/r_glcdc.o
 .debug_aranges
                0x00001248       0x40 ./ra/fsp/src/r_drw/r_drw_base.o
 .debug_aranges
                0x00001288       0x90 ./ra/fsp/src/r_drw/r_drw_irq.o
 .debug_aranges
                0x00001318       0x90 ./ra/fsp/src/r_drw/r_drw_memory.o
 .debug_aranges
                0x000013a8       0xc0 ./ra/fsp/src/bsp/mcu/all/bsp_clocks.o
 .debug_aranges
                0x00001468       0x30 ./ra/fsp/src/bsp/mcu/all/bsp_common.o
 .debug_aranges
                0x00001498       0x28 ./ra/fsp/src/bsp/mcu/all/bsp_delay.o
 .debug_aranges
                0x000014c0       0x30 ./ra/fsp/src/bsp/mcu/all/bsp_group_irq.o
 .debug_aranges
                0x000014f0       0x18 ./ra/fsp/src/bsp/mcu/all/bsp_io.o
 .debug_aranges
                0x00001508       0x20 ./ra/fsp/src/bsp/mcu/all/bsp_irq.o
 .debug_aranges
                0x00001528       0x28 ./ra/fsp/src/bsp/mcu/all/bsp_register_protection.o
 .debug_aranges
                0x00001550       0x18 ./ra/fsp/src/bsp/mcu/all/bsp_rom_registers.o
 .debug_aranges
                0x00001568       0x20 ./ra/fsp/src/bsp/mcu/all/bsp_sbrk.o
 .debug_aranges
                0x00001588       0x28 ./ra/fsp/src/bsp/cmsis/Device/RENESAS/Source/startup.o
 .debug_aranges
                0x000015b0       0x48 ./ra/fsp/src/bsp/cmsis/Device/RENESAS/Source/system.o
 .debug_aranges
                0x000015f8       0x20 ./ra/board/ra8d1_ek/board_init.o
 .debug_aranges
                0x00001618       0x18 ./ra/board/ra8d1_ek/board_leds.o
 .debug_aranges
                0x00001630       0x20 ./ra/board/ra8d1_ek/board_sdram.o

.debug_ranges   0x00000000     0x1308
 .debug_ranges  0x00000000       0x18 ./src/testbench/testbench.o
 .debug_ranges  0x00000018       0x10 ./src/testbench/testbench_timers.o
 .debug_ranges  0x00000028       0x30 ./src/draw_core/draw_core.o
 .debug_ranges  0x00000058       0x48 ./src/SEGGER_RTT/SEGGER_RTT_printf.o
 .debug_ranges  0x000000a0       0x30 ./src/SCI_RTT/SCI_RTT.o
 .debug_ranges  0x000000d0       0x18 ./src/MIPI/mipi.o
 .debug_ranges  0x000000e8       0x28 ./src/GLCD/glcd.o
 .debug_ranges  0x00000110       0x20 ./src/DRW_ep.o
 .debug_ranges  0x00000130       0x18 ./src/hal_entry.o
 .debug_ranges  0x00000148       0x10 ./ra_gen/common_data.o
 .debug_ranges  0x00000158       0x10 ./ra_gen/hal_data.o
 .debug_ranges  0x00000168       0x10 ./ra_gen/main.o
 .debug_ranges  0x00000178       0x58 ./ra/tes/dave2d/src/dave_box.o
 .debug_ranges  0x000001d0      0x188 ./ra/tes/dave2d/src/dave_context.o
 .debug_ranges  0x00000358       0x18 ./ra/tes/dave2d/src/dave_curve.o
 .debug_ranges  0x00000370       0xc8 ./ra/tes/dave2d/src/dave_dlist.o
 .debug_ranges  0x00000438       0xe0 ./ra/tes/dave2d/src/dave_driver.o
 .debug_ranges  0x00000518       0x48 ./ra/tes/dave2d/src/dave_edge.o
 .debug_ranges  0x00000560       0x10 ./ra/tes/dave2d/src/dave_errorcodes.o
 .debug_ranges  0x00000570       0x30 ./ra/tes/dave2d/src/dave_gradient.o
 .debug_ranges  0x000005a0       0x58 ./ra/tes/dave2d/src/dave_hardware.o
 .debug_ranges  0x000005f8       0x88 ./ra/tes/dave2d/src/dave_line.o
 .debug_ranges  0x00000680       0x18 ./ra/tes/dave2d/src/dave_math.o
 .debug_ranges  0x00000698       0x30 ./ra/tes/dave2d/src/dave_memory.o
 .debug_ranges  0x000006c8       0x28 ./ra/tes/dave2d/src/dave_pattern.o
 .debug_ranges  0x000006f0       0x70 ./ra/tes/dave2d/src/dave_polyline.o
 .debug_ranges  0x00000760       0xa0 ./ra/tes/dave2d/src/dave_rbuffer.o
 .debug_ranges  0x00000800       0xb0 ./ra/tes/dave2d/src/dave_render.o
 .debug_ranges  0x000008b0       0xe8 ./ra/tes/dave2d/src/dave_texture.o
 .debug_ranges  0x00000998       0x40 ./ra/tes/dave2d/src/dave_triangle.o
 .debug_ranges  0x000009d8       0x38 ./ra/tes/dave2d/src/dave_viewport.o
 .debug_ranges  0x00000a10      0x130 ./ra/fsp/src/r_sci_b_uart/r_sci_b_uart.o
 .debug_ranges  0x00000b40       0x20 ./ra/fsp/src/r_mipi_phy/r_mipi_phy.o
 .debug_ranges  0x00000b60      0x140 ./ra/fsp/src/r_mipi_dsi/r_mipi_dsi.o
 .debug_ranges  0x00000ca0       0xa8 ./ra/fsp/src/r_ioport/r_ioport.o
 .debug_ranges  0x00000d48      0x170 ./ra/fsp/src/r_gpt/r_gpt.o
 .debug_ranges  0x00000eb8      0x170 ./ra/fsp/src/r_glcdc/r_glcdc.o
 .debug_ranges  0x00001028       0x30 ./ra/fsp/src/r_drw/r_drw_base.o
 .debug_ranges  0x00001058       0x80 ./ra/fsp/src/r_drw/r_drw_irq.o
 .debug_ranges  0x000010d8       0x80 ./ra/fsp/src/r_drw/r_drw_memory.o
 .debug_ranges  0x00001158       0xb0 ./ra/fsp/src/bsp/mcu/all/bsp_clocks.o
 .debug_ranges  0x00001208       0x20 ./ra/fsp/src/bsp/mcu/all/bsp_common.o
 .debug_ranges  0x00001228       0x18 ./ra/fsp/src/bsp/mcu/all/bsp_delay.o
 .debug_ranges  0x00001240       0x20 ./ra/fsp/src/bsp/mcu/all/bsp_group_irq.o
 .debug_ranges  0x00001260       0x10 ./ra/fsp/src/bsp/mcu/all/bsp_irq.o
 .debug_ranges  0x00001270       0x18 ./ra/fsp/src/bsp/mcu/all/bsp_register_protection.o
 .debug_ranges  0x00001288       0x10 ./ra/fsp/src/bsp/mcu/all/bsp_sbrk.o
 .debug_ranges  0x00001298       0x18 ./ra/fsp/src/bsp/cmsis/Device/RENESAS/Source/startup.o
 .debug_ranges  0x000012b0       0x38 ./ra/fsp/src/bsp/cmsis/Device/RENESAS/Source/system.o
 .debug_ranges  0x000012e8       0x10 ./ra/board/ra8d1_ek/board_init.o
 .debug_ranges  0x000012f8       0x10 ./ra/board/ra8d1_ek/board_sdram.o

.debug_line     0x00000000    0x1458b
 .debug_line    0x00000000      0x728 ./src/testbench/testbench.o
 .debug_line    0x00000728      0x32a ./src/testbench/testbench_timers.o
 .debug_line    0x00000a52      0x64f ./src/draw_core/draw_core.o
 .debug_line    0x000010a1      0x453 ./src/SEGGER_RTT/SEGGER_RTT_printf.o
 .debug_line    0x000014f4      0x4b3 ./src/SCI_RTT/SCI_RTT.o
 .debug_line    0x000019a7      0x3fa ./src/MIPI/mipi.o
 .debug_line    0x00001da1      0x486 ./src/GLCD/glcd.o
 .debug_line    0x00002227      0x671 ./src/DRW_ep.o
 .debug_line    0x00002898      0x30b ./src/hal_entry.o
 .debug_line    0x00002ba3      0x3bf ./ra_gen/common_data.o
 .debug_line    0x00002f62      0x36e ./ra_gen/hal_data.o
 .debug_line    0x000032d0       0x57 ./ra_gen/main.o
 .debug_line    0x00003327      0x249 ./ra_gen/pin_data.o
 .debug_line    0x00003570      0x177 ./ra_gen/vector_data.o
 .debug_line    0x000036e7      0x589 ./ra/tes/dave2d/src/dave_box.o
 .debug_line    0x00003c70      0xc5e ./ra/tes/dave2d/src/dave_context.o
 .debug_line    0x000048ce      0x310 ./ra/tes/dave2d/src/dave_curve.o
 .debug_line    0x00004bde      0xfa3 ./ra/tes/dave2d/src/dave_dlist.o
 .debug_line    0x00005b81      0x82e ./ra/tes/dave2d/src/dave_driver.o
 .debug_line    0x000063af      0x8b3 ./ra/tes/dave2d/src/dave_edge.o
 .debug_line    0x00006c62       0xe0 ./ra/tes/dave2d/src/dave_errorcodes.o
 .debug_line    0x00006d42      0x346 ./ra/tes/dave2d/src/dave_gradient.o
 .debug_line    0x00007088      0x2cc ./ra/tes/dave2d/src/dave_hardware.o
 .debug_line    0x00007354      0xfd7 ./ra/tes/dave2d/src/dave_line.o
 .debug_line    0x0000832b      0x17e ./ra/tes/dave2d/src/dave_math.o
 .debug_line    0x000084a9      0x266 ./ra/tes/dave2d/src/dave_memory.o
 .debug_line    0x0000870f      0x251 ./ra/tes/dave2d/src/dave_pattern.o
 .debug_line    0x00008960      0x62c ./ra/tes/dave2d/src/dave_polyline.o
 .debug_line    0x00008f8c      0xa37 ./ra/tes/dave2d/src/dave_rbuffer.o
 .debug_line    0x000099c3      0x8f5 ./ra/tes/dave2d/src/dave_render.o
 .debug_line    0x0000a2b8      0xb73 ./ra/tes/dave2d/src/dave_texture.o
 .debug_line    0x0000ae2b      0x63d ./ra/tes/dave2d/src/dave_triangle.o
 .debug_line    0x0000b468      0x367 ./ra/tes/dave2d/src/dave_viewport.o
 .debug_line    0x0000b7cf     0x1009 ./ra/fsp/src/r_sci_b_uart/r_sci_b_uart.o
 .debug_line    0x0000c7d8      0x446 ./ra/fsp/src/r_mipi_phy/r_mipi_phy.o
 .debug_line    0x0000cc1e     0x12c4 ./ra/fsp/src/r_mipi_dsi/r_mipi_dsi.o
 .debug_line    0x0000dee2      0xa97 ./ra/fsp/src/r_ioport/r_ioport.o
 .debug_line    0x0000e979      0xf31 ./ra/fsp/src/r_gpt/r_gpt.o
 .debug_line    0x0000f8aa     0x14df ./ra/fsp/src/r_glcdc/r_glcdc.o
 .debug_line    0x00010d89      0x4ae ./ra/fsp/src/r_drw/r_drw_base.o
 .debug_line    0x00011237      0x5e8 ./ra/fsp/src/r_drw/r_drw_irq.o
 .debug_line    0x0001181f      0x30c ./ra/fsp/src/r_drw/r_drw_memory.o
 .debug_line    0x00011b2b      0x9b1 ./ra/fsp/src/bsp/mcu/all/bsp_clocks.o
 .debug_line    0x000124dc      0x2a0 ./ra/fsp/src/bsp/mcu/all/bsp_common.o
 .debug_line    0x0001277c      0x26c ./ra/fsp/src/bsp/mcu/all/bsp_delay.o
 .debug_line    0x000129e8      0x3e8 ./ra/fsp/src/bsp/mcu/all/bsp_group_irq.o
 .debug_line    0x00012dd0      0x187 ./ra/fsp/src/bsp/mcu/all/bsp_io.o
 .debug_line    0x00012f57      0x2c5 ./ra/fsp/src/bsp/mcu/all/bsp_irq.o
 .debug_line    0x0001321c      0x378 ./ra/fsp/src/bsp/mcu/all/bsp_register_protection.o
 .debug_line    0x00013594      0x129 ./ra/fsp/src/bsp/mcu/all/bsp_rom_registers.o
 .debug_line    0x000136bd      0x178 ./ra/fsp/src/bsp/mcu/all/bsp_sbrk.o
 .debug_line    0x00013835      0x1e1 ./ra/fsp/src/bsp/cmsis/Device/RENESAS/Source/startup.o
 .debug_line    0x00013a16      0x681 ./ra/fsp/src/bsp/cmsis/Device/RENESAS/Source/system.o
 .debug_line    0x00014097       0x54 ./ra/board/ra8d1_ek/board_init.o
 .debug_line    0x000140eb      0x1ee ./ra/board/ra8d1_ek/board_leds.o
 .debug_line    0x000142d9      0x2b2 ./ra/board/ra8d1_ek/board_sdram.o

.debug_str      0x00000000    0x1a20c
 .debug_str     0x00000000    0x1a20c ./src/testbench/testbench.o
                               0x4086 (size before relaxing)
 .debug_str     0x0001a20c     0x2ef5 ./src/testbench/testbench_timers.o
 .debug_str     0x0001a20c      0x6eb ./src/draw_core/draw_core.o
 .debug_str     0x0001a20c      0x32b ./src/SEGGER_RTT/SEGGER_RTT_printf.o
 .debug_str     0x0001a20c     0x4029 ./src/SCI_RTT/SCI_RTT.o
 .debug_str     0x0001a20c     0x3745 ./src/MIPI/mipi.o
 .debug_str     0x0001a20c     0x3674 ./src/GLCD/glcd.o
 .debug_str     0x0001a20c     0x4a08 ./src/DRW_ep.o
 .debug_str     0x0001a20c     0x33aa ./src/hal_entry.o
 .debug_str     0x0001a20c     0x65c0 ./ra_gen/common_data.o
 .debug_str     0x0001a20c     0x6951 ./ra_gen/hal_data.o
 .debug_str     0x0001a20c      0x1eb ./ra_gen/main.o
 .debug_str     0x0001a20c     0x1d76 ./ra_gen/pin_data.o
 .debug_str     0x0001a20c     0x219e ./ra_gen/vector_data.o
 .debug_str     0x0001a20c      0xe3f ./ra/tes/dave2d/src/dave_box.o
 .debug_str     0x0001a20c     0x1062 ./ra/tes/dave2d/src/dave_context.o
 .debug_str     0x0001a20c      0xb1a ./ra/tes/dave2d/src/dave_curve.o
 .debug_str     0x0001a20c     0x1160 ./ra/tes/dave2d/src/dave_dlist.o
 .debug_str     0x0001a20c     0x1062 ./ra/tes/dave2d/src/dave_driver.o
 .debug_str     0x0001a20c      0xbc8 ./ra/tes/dave2d/src/dave_edge.o
 .debug_str     0x0001a20c      0x386 ./ra/tes/dave2d/src/dave_errorcodes.o
 .debug_str     0x0001a20c      0xb8d ./ra/tes/dave2d/src/dave_gradient.o
 .debug_str     0x0001a20c      0xd6d ./ra/tes/dave2d/src/dave_hardware.o
 .debug_str     0x0001a20c     0x102e ./ra/tes/dave2d/src/dave_line.o
 .debug_str     0x0001a20c      0x1f6 ./ra/tes/dave2d/src/dave_math.o
 .debug_str     0x0001a20c      0xc5d ./ra/tes/dave2d/src/dave_memory.o
 .debug_str     0x0001a20c      0xb50 ./ra/tes/dave2d/src/dave_pattern.o
 .debug_str     0x0001a20c      0xec2 ./ra/tes/dave2d/src/dave_polyline.o
 .debug_str     0x0001a20c     0x1041 ./ra/tes/dave2d/src/dave_rbuffer.o
 .debug_str     0x0001a20c     0x1352 ./ra/tes/dave2d/src/dave_render.o
 .debug_str     0x0001a20c      0xf85 ./ra/tes/dave2d/src/dave_texture.o
 .debug_str     0x0001a20c      0xe92 ./ra/tes/dave2d/src/dave_triangle.o
 .debug_str     0x0001a20c      0xcc8 ./ra/tes/dave2d/src/dave_viewport.o
 .debug_str     0x0001a20c     0x7a38 ./ra/fsp/src/r_sci_b_uart/r_sci_b_uart.o
 .debug_str     0x0001a20c     0x44d8 ./ra/fsp/src/r_mipi_phy/r_mipi_phy.o
 .debug_str     0x0001a20c     0x830e ./ra/fsp/src/r_mipi_dsi/r_mipi_dsi.o
 .debug_str     0x0001a20c     0x6934 ./ra/fsp/src/r_ioport/r_ioport.o
 .debug_str     0x0001a20c     0x79f2 ./ra/fsp/src/r_gpt/r_gpt.o
 .debug_str     0x0001a20c     0x67ea ./ra/fsp/src/r_glcdc/r_glcdc.o
 .debug_str     0x0001a20c     0x112b ./ra/fsp/src/r_drw/r_drw_base.o
 .debug_str     0x0001a20c     0x11ff ./ra/fsp/src/r_drw/r_drw_irq.o
 .debug_str     0x0001a20c      0x39e ./ra/fsp/src/r_drw/r_drw_memory.o
 .debug_str     0x0001a20c     0x357d ./ra/fsp/src/bsp/mcu/all/bsp_clocks.o
 .debug_str     0x0001a20c     0x1c41 ./ra/fsp/src/bsp/mcu/all/bsp_common.o
 .debug_str     0x0001a20c      0x314 ./ra/fsp/src/bsp/mcu/all/bsp_delay.o
 .debug_str     0x0001a20c     0x20a4 ./ra/fsp/src/bsp/mcu/all/bsp_group_irq.o
 .debug_str     0x0001a20c      0x214 ./ra/fsp/src/bsp/mcu/all/bsp_io.o
 .debug_str     0x0001a20c     0x24f7 ./ra/fsp/src/bsp/mcu/all/bsp_irq.o
 .debug_str     0x0001a20c     0x286a ./ra/fsp/src/bsp/mcu/all/bsp_register_protection.o
 .debug_str     0x0001a20c      0x3ea ./ra/fsp/src/bsp/mcu/all/bsp_rom_registers.o
 .debug_str     0x0001a20c      0x275 ./ra/fsp/src/bsp/mcu/all/bsp_sbrk.o
 .debug_str     0x0001a20c      0x283 ./ra/fsp/src/bsp/cmsis/Device/RENESAS/Source/startup.o
 .debug_str     0x0001a20c     0x3192 ./ra/fsp/src/bsp/cmsis/Device/RENESAS/Source/system.o
 .debug_str     0x0001a20c      0x1f7 ./ra/board/ra8d1_ek/board_init.o
 .debug_str     0x0001a20c     0x16f1 ./ra/board/ra8d1_ek/board_leds.o
 .debug_str     0x0001a20c      0x9e6 ./ra/board/ra8d1_ek/board_sdram.o

.debug_frame    0x00000000     0x5770
 .debug_frame   0x00000000       0x58 ./src/testbench/testbench.o
 .debug_frame   0x00000058       0x34 ./src/testbench/testbench_timers.o
 .debug_frame   0x0000008c       0xcc ./src/draw_core/draw_core.o
 .debug_frame   0x00000158       0xe0 ./src/SEGGER_RTT/SEGGER_RTT_printf.o
 .debug_frame   0x00000238       0xcc ./src/SCI_RTT/SCI_RTT.o
 .debug_frame   0x00000304       0x5c ./src/MIPI/mipi.o
 .debug_frame   0x00000360       0xa8 ./src/GLCD/glcd.o
 .debug_frame   0x00000408       0x7c ./src/DRW_ep.o
 .debug_frame   0x00000484       0x50 ./src/hal_entry.o
 .debug_frame   0x000004d4       0x30 ./ra_gen/common_data.o
 .debug_frame   0x00000504       0x2c ./ra_gen/hal_data.o
 .debug_frame   0x00000530       0x2c ./ra_gen/main.o
 .debug_frame   0x0000055c      0x18c ./ra/tes/dave2d/src/dave_box.o
 .debug_frame   0x000006e8      0x6f8 ./ra/tes/dave2d/src/dave_context.o
 .debug_frame   0x00000de0       0x68 ./ra/tes/dave2d/src/dave_curve.o
 .debug_frame   0x00000e48      0x39c ./ra/tes/dave2d/src/dave_dlist.o
 .debug_frame   0x000011e4      0x3fc ./ra/tes/dave2d/src/dave_driver.o
 .debug_frame   0x000015e0      0x15c ./ra/tes/dave2d/src/dave_edge.o
 .debug_frame   0x0000173c       0x38 ./ra/tes/dave2d/src/dave_errorcodes.o
 .debug_frame   0x00001774       0xd0 ./ra/tes/dave2d/src/dave_gradient.o
 .debug_frame   0x00001844      0x10c ./ra/tes/dave2d/src/dave_hardware.o
 .debug_frame   0x00001950      0x29c ./ra/tes/dave2d/src/dave_line.o
 .debug_frame   0x00001bec       0x60 ./ra/tes/dave2d/src/dave_math.o
 .debug_frame   0x00001c4c       0xc4 ./ra/tes/dave2d/src/dave_memory.o
 .debug_frame   0x00001d10       0xa0 ./ra/tes/dave2d/src/dave_pattern.o
 .debug_frame   0x00001db0      0x1f4 ./ra/tes/dave2d/src/dave_polyline.o
 .debug_frame   0x00001fa4      0x2d4 ./ra/tes/dave2d/src/dave_rbuffer.o
 .debug_frame   0x00002278      0x340 ./ra/tes/dave2d/src/dave_render.o
 .debug_frame   0x000025b8      0x418 ./ra/tes/dave2d/src/dave_texture.o
 .debug_frame   0x000029d0      0x128 ./ra/tes/dave2d/src/dave_triangle.o
 .debug_frame   0x00002af8       0xf4 ./ra/tes/dave2d/src/dave_viewport.o
 .debug_frame   0x00002bec      0x4a8 ./ra/fsp/src/r_sci_b_uart/r_sci_b_uart.o
 .debug_frame   0x00003094       0x84 ./ra/fsp/src/r_mipi_phy/r_mipi_phy.o
 .debug_frame   0x00003118      0x5d4 ./ra/fsp/src/r_mipi_dsi/r_mipi_dsi.o
 .debug_frame   0x000036ec      0x2f4 ./ra/fsp/src/r_ioport/r_ioport.o
 .debug_frame   0x000039e0      0x690 ./ra/fsp/src/r_gpt/r_gpt.o
 .debug_frame   0x00004070      0x6b4 ./ra/fsp/src/r_glcdc/r_glcdc.o
 .debug_frame   0x00004724       0xd0 ./ra/fsp/src/r_drw/r_drw_base.o
 .debug_frame   0x000047f4      0x24c ./ra/fsp/src/r_drw/r_drw_irq.o
 .debug_frame   0x00004a40      0x250 ./ra/fsp/src/r_drw/r_drw_memory.o
 .debug_frame   0x00004c90      0x30c ./ra/fsp/src/bsp/mcu/all/bsp_clocks.o
 .debug_frame   0x00004f9c       0x78 ./ra/fsp/src/bsp/mcu/all/bsp_common.o
 .debug_frame   0x00005014       0x50 ./ra/fsp/src/bsp/mcu/all/bsp_delay.o
 .debug_frame   0x00005064       0x7c ./ra/fsp/src/bsp/mcu/all/bsp_group_irq.o
 .debug_frame   0x000050e0       0x38 ./ra/fsp/src/bsp/mcu/all/bsp_irq.o
 .debug_frame   0x00005118       0x60 ./ra/fsp/src/bsp/mcu/all/bsp_register_protection.o
 .debug_frame   0x00005178       0x34 ./ra/fsp/src/bsp/mcu/all/bsp_sbrk.o
 .debug_frame   0x000051ac       0x4c ./ra/fsp/src/bsp/cmsis/Device/RENESAS/Source/startup.o
 .debug_frame   0x000051f8       0xec ./ra/fsp/src/bsp/cmsis/Device/RENESAS/Source/system.o
 .debug_frame   0x000052e4       0x38 ./ra/board/ra8d1_ek/board_init.o
 .debug_frame   0x0000531c       0x30 ./ra/board/ra8d1_ek/board_sdram.o
 .debug_frame   0x0000534c       0x44 C:/Program Files (x86)/Arm GNU Toolchain arm-none-eabi/13.2 Rel1/bin/../lib/gcc/arm-none-eabi/13.2.1/thumb/v8-m.main+dp/hard\libgcc.a(_aeabi_ldivmod.o)
 .debug_frame   0x00005390       0x38 C:/Program Files (x86)/Arm GNU Toolchain arm-none-eabi/13.2 Rel1/bin/../lib/gcc/arm-none-eabi/13.2.1/thumb/v8-m.main+dp/hard\libgcc.a(_udivmoddi4.o)
 .debug_frame   0x000053c8       0x30 C:/Program Files (x86)/Arm GNU Toolchain arm-none-eabi/13.2 Rel1/bin/../lib/gcc/arm-none-eabi/13.2.1/thumb/v8-m.main+dp/hard\libg_nano.a(libc_a-malloc.o)
 .debug_frame   0x000053f8       0x50 C:/Program Files (x86)/Arm GNU Toolchain arm-none-eabi/13.2 Rel1/bin/../lib/gcc/arm-none-eabi/13.2.1/thumb/v8-m.main+dp/hard\libg_nano.a(libc_a-mallocr.o)
 .debug_frame   0x00005448       0x30 C:/Program Files (x86)/Arm GNU Toolchain arm-none-eabi/13.2 Rel1/bin/../lib/gcc/arm-none-eabi/13.2.1/thumb/v8-m.main+dp/hard\libg_nano.a(libc_a-mlock.o)
 .debug_frame   0x00005478      0x144 C:/Program Files (x86)/Arm GNU Toolchain arm-none-eabi/13.2 Rel1/bin/../lib/gcc/arm-none-eabi/13.2.1/thumb/v8-m.main+dp/hard\libg_nano.a(libc_a-findfp.o)
 .debug_frame   0x000055bc       0x20 C:/Program Files (x86)/Arm GNU Toolchain arm-none-eabi/13.2 Rel1/bin/../lib/gcc/arm-none-eabi/13.2.1/thumb/v8-m.main+dp/hard\libg_nano.a(libc_a-memset.o)
 .debug_frame   0x000055dc       0x38 C:/Program Files (x86)/Arm GNU Toolchain arm-none-eabi/13.2 Rel1/bin/../lib/gcc/arm-none-eabi/13.2.1/thumb/v8-m.main+dp/hard\libg_nano.a(libc_a-reent.o)
 .debug_frame   0x00005614       0x2c C:/Program Files (x86)/Arm GNU Toolchain arm-none-eabi/13.2 Rel1/bin/../lib/gcc/arm-none-eabi/13.2.1/thumb/v8-m.main+dp/hard\libg_nano.a(libc_a-sbrkr.o)
 .debug_frame   0x00005640       0x20 C:/Program Files (x86)/Arm GNU Toolchain arm-none-eabi/13.2 Rel1/bin/../lib/gcc/arm-none-eabi/13.2.1/thumb/v8-m.main+dp/hard\libg_nano.a(libc_a-errno.o)
 .debug_frame   0x00005660       0xb0 C:/Program Files (x86)/Arm GNU Toolchain arm-none-eabi/13.2 Rel1/bin/../lib/gcc/arm-none-eabi/13.2.1/thumb/v8-m.main+dp/hard\libg_nano.a(libc_a-lock.o)
 .debug_frame   0x00005710       0x28 C:/Program Files (x86)/Arm GNU Toolchain arm-none-eabi/13.2 Rel1/bin/../lib/gcc/arm-none-eabi/13.2.1/thumb/v8-m.main+dp/hard\libg_nano.a(libc_a-memcpy-stub.o)
 .debug_frame   0x00005738       0x38 C:/Program Files (x86)/Arm GNU Toolchain arm-none-eabi/13.2 Rel1/bin/../lib/gcc/arm-none-eabi/13.2.1/thumb/v8-m.main+dp/hard\libg_nano.a(libc_a-freer.o)

.debug_line_str
                0x00000000      0x1c8
 .debug_line_str
                0x00000000      0x1c8 C:/Program Files (x86)/Arm GNU Toolchain arm-none-eabi/13.2 Rel1/bin/../lib/gcc/arm-none-eabi/13.2.1/thumb/v8-m.main+dp/hard\libgcc.a(_aeabi_ldivmod.o)
                                 0xcd (size before relaxing)
 .debug_line_str
                0x000001c8       0xd1 C:/Program Files (x86)/Arm GNU Toolchain arm-none-eabi/13.2 Rel1/bin/../lib/gcc/arm-none-eabi/13.2.1/thumb/v8-m.main+dp/hard\libgcc.a(_dvmd_tls.o)
 .debug_line_str
                0x000001c8       0xef C:/Program Files (x86)/Arm GNU Toolchain arm-none-eabi/13.2 Rel1/bin/../lib/gcc/arm-none-eabi/13.2.1/thumb/v8-m.main+dp/hard\libg_nano.a(libc_a-strlen.o)
